Archive member included because of file (symbol)

/xspace/OrangePi/MTK/SourceCode/OrangePi_3G-IOT/external/mediatek/platform/mt6572/preloader/src/SecLib.a(seclib_boot.o)
                              ../../output/obj/PRELOADER_OBJ/obj/sec_boot.o (seclib_sec_boot_enabled)
/xspace/OrangePi/MTK/SourceCode/OrangePi_3G-IOT/external/mediatek/platform/mt6572/preloader/src/SecLib.a(seclib_dl.o)
                              ../../output/obj/PRELOADER_OBJ/obj/download.o (seclib_sec_usbdl_enabled)
/xspace/OrangePi/MTK/SourceCode/OrangePi_3G-IOT/external/mediatek/platform/mt6572/preloader/src/SecLib.a(seclib_img_hash.o)
                              ../../output/obj/PRELOADER_OBJ/obj/sec_auth.o (seclib_image_hash_compute)
/xspace/OrangePi/MTK/SourceCode/OrangePi_3G-IOT/external/mediatek/platform/mt6572/preloader/src/SecLib.a(seclib_img_verify.o)
                              /xspace/OrangePi/MTK/SourceCode/OrangePi_3G-IOT/external/mediatek/platform/mt6572/preloader/src/SecLib.a(seclib_boot.o) (seclib_image_verify)
/xspace/OrangePi/MTK/SourceCode/OrangePi_3G-IOT/external/mediatek/platform/mt6572/preloader/src/SecLib.a(seclib_key.o)
                              ../../output/obj/PRELOADER_OBJ/obj/sec_key.o (seclib_read_sbc_key)
/xspace/OrangePi/MTK/SourceCode/OrangePi_3G-IOT/external/mediatek/platform/mt6572/preloader/src/SecLib.a(seclib.o)
                              /xspace/OrangePi/MTK/SourceCode/OrangePi_3G-IOT/external/mediatek/platform/mt6572/preloader/src/SecLib.a(seclib_boot.o) (g_cust)
/xspace/OrangePi/MTK/SourceCode/OrangePi_3G-IOT/external/mediatek/platform/mt6572/preloader/src/SecLib.a(seclib_secroimg.o)
                              ../../output/obj/PRELOADER_OBJ/obj/sec_secroimg.o (seclib_secroimg_read)
/xspace/OrangePi/MTK/SourceCode/OrangePi_3G-IOT/external/mediatek/platform/mt6572/preloader/src/SecLib.a(seclib_sej_export.o)
                              /xspace/OrangePi/MTK/SourceCode/OrangePi_3G-IOT/external/mediatek/platform/mt6572/preloader/src/SecLib.a(seclib.o) (sp_read_swotp)
/xspace/OrangePi/MTK/SourceCode/OrangePi_3G-IOT/external/mediatek/platform/mt6572/preloader/src/SecLib.a(seclib_util.o)
                              /xspace/OrangePi/MTK/SourceCode/OrangePi_3G-IOT/external/mediatek/platform/mt6572/preloader/src/SecLib.a(seclib_img_verify.o) (seclib_image_hash_dump)
/xspace/OrangePi/MTK/SourceCode/OrangePi_3G-IOT/external/mediatek/platform/mt6572/preloader/src/SecLib.a(weak_auth.o)
                              ../../output/obj/PRELOADER_OBJ/obj/sec_auth.o (seclib_rsa_init)
/xspace/OrangePi/MTK/SourceCode/OrangePi_3G-IOT/external/mediatek/platform/mt6572/preloader/src/SecLib.a(seccfg_crypto.o)
                              /xspace/OrangePi/MTK/SourceCode/OrangePi_3G-IOT/external/mediatek/platform/mt6572/preloader/src/SecLib.a(seclib_boot.o) (get_seccfg_cipher_len)
/xspace/OrangePi/MTK/SourceCode/OrangePi_3G-IOT/external/mediatek/platform/mt6572/preloader/src/security/auth/DaVerifyLib.a(auth.o)
                              ../../output/obj/PRELOADER_OBJ/obj/sec_auth.o (seclib_mtk_rsa_n_key_len)
/xspace/OrangePi/MTK/SourceCode/OrangePi_3G-IOT/external/mediatek/platform/mt6572/preloader/src/security/auth/DaVerifyLib.a(bgn_io.o)
                              /xspace/OrangePi/MTK/SourceCode/OrangePi_3G-IOT/external/mediatek/platform/mt6572/preloader/src/security/auth/DaVerifyLib.a(auth.o) (bgn_read_str)
/xspace/OrangePi/MTK/SourceCode/OrangePi_3G-IOT/external/mediatek/platform/mt6572/preloader/src/security/auth/DaVerifyLib.a(bgn_util.o)
                              /xspace/OrangePi/MTK/SourceCode/OrangePi_3G-IOT/external/mediatek/platform/mt6572/preloader/src/security/auth/DaVerifyLib.a(bgn_io.o) (bgn_grow)
/xspace/OrangePi/MTK/SourceCode/OrangePi_3G-IOT/external/mediatek/platform/mt6572/preloader/src/security/auth/DaVerifyLib.a(rsa.o)
                              /xspace/OrangePi/MTK/SourceCode/OrangePi_3G-IOT/external/mediatek/platform/mt6572/preloader/src/security/auth/DaVerifyLib.a(auth.o) (rsa_verify)
/xspace/OrangePi/MTK/SourceCode/OrangePi_3G-IOT/external/mediatek/platform/mt6572/preloader/src/security/auth/DaVerifyLib.a(sha1.o)
                              /xspace/OrangePi/MTK/SourceCode/OrangePi_3G-IOT/external/mediatek/platform/mt6572/preloader/src/SecLib.a(seclib_img_hash.o) (sha1)
/xspace/OrangePi/MTK/SourceCode/OrangePi_3G-IOT/external/mediatek/platform/mt6572/preloader/src/security/auth/DaVerifyLib.a(stdlib.o)
                              ../../output/obj/PRELOADER_OBJ/obj/mtk_nand.o (malloc)
/xspace/OrangePi/MTK/SourceCode/OrangePi_3G-IOT/external/mediatek/platform/mt6572/preloader/src/security/auth/DaVerifyLib.a(bgn_core.o)
                              /xspace/OrangePi/MTK/SourceCode/OrangePi_3G-IOT/external/mediatek/platform/mt6572/preloader/src/security/auth/DaVerifyLib.a(bgn_io.o) (bgn_init)
/xspace/OrangePi/MTK/SourceCode/OrangePi_3G-IOT/external/mediatek/platform/mt6572/preloader/src/security/auth/DaVerifyLib.a(montg.o)
                              /xspace/OrangePi/MTK/SourceCode/OrangePi_3G-IOT/external/mediatek/platform/mt6572/preloader/src/security/auth/DaVerifyLib.a(bgn_core.o) (montg_init)
/xspace/OrangePi/MTK/SourceCode/OrangePi_3G-IOT/external/mediatek/platform/mt6572/preloader/src/SecPlat.a(efuse.o)
                              ../../output/obj/PRELOADER_OBJ/obj/download.o (seclib_sbc_enabled)
/xspace/OrangePi/MTK/SourceCode/OrangePi_3G-IOT/external/mediatek/platform/mt6572/preloader/src/SecPlat.a(meta.o)
                              ../../output/obj/PRELOADER_OBJ/obj/main.o (seclib_brom_meta_mode)
/xspace/OrangePi/MTK/SourceCode/OrangePi_3G-IOT/external/mediatek/platform/mt6572/preloader/src/SecPlat.a(seclib_region.o)
                              ../../output/obj/PRELOADER_OBJ/obj/sec_region.o (seclib_region_check)
/xspace/OrangePi/MTK/SourceCode/OrangePi_3G-IOT/external/mediatek/platform/mt6572/preloader/src/SecPlat.a(sej_hk.o)
                              /xspace/OrangePi/MTK/SourceCode/OrangePi_3G-IOT/external/mediatek/platform/mt6572/preloader/src/SecLib.a(seclib_sej_export.o) (SEJ_V3_Init)
/xspace/OrangePi/MTK/SourceCode/OrangePi_3G-IOT/external/mediatek/platform/mt6572/preloader/src/SecPlat.a(sej_sk.o)
                              /xspace/OrangePi/MTK/SourceCode/OrangePi_3G-IOT/external/mediatek/platform/mt6572/preloader/src/SecLib.a(seclib_sej_export.o) (sej_set_key)

Discarded input sections

 .text          0x00000000        0x0 ../../output/obj/PRELOADER_OBJ/obj/addr_trans.o
 .data          0x00000000        0x0 ../../output/obj/PRELOADER_OBJ/obj/addr_trans.o
 .bss           0x00000000        0x0 ../../output/obj/PRELOADER_OBJ/obj/addr_trans.o
 .text.virt_to_phys_addr
                0x00000000       0xa0 ../../output/obj/PRELOADER_OBJ/obj/addr_trans.o
 .text.phys_to_virt_addr
                0x00000000       0x6c ../../output/obj/PRELOADER_OBJ/obj/addr_trans.o
 .note.GNU-stack
                0x00000000        0x0 ../../output/obj/PRELOADER_OBJ/obj/addr_trans.o
 .text          0x00000000        0x0 ../../output/obj/PRELOADER_OBJ/obj/blkdev.o
 .data          0x00000000        0x0 ../../output/obj/PRELOADER_OBJ/obj/blkdev.o
 .bss           0x00000000        0x0 ../../output/obj/PRELOADER_OBJ/obj/blkdev.o
 .text.blkdev_bread
                0x00000000        0x8 ../../output/obj/PRELOADER_OBJ/obj/blkdev.o
 .text.blkdev_bwrite
                0x00000000        0x8 ../../output/obj/PRELOADER_OBJ/obj/blkdev.o
 .note.GNU-stack
                0x00000000        0x0 ../../output/obj/PRELOADER_OBJ/obj/blkdev.o
 .text          0x00000000        0x0 ../../output/obj/PRELOADER_OBJ/obj/bmt.o
 .data          0x00000000        0x0 ../../output/obj/PRELOADER_OBJ/obj/bmt.o
 .bss           0x00000000        0x0 ../../output/obj/PRELOADER_OBJ/obj/bmt.o
 .note.GNU-stack
                0x00000000        0x0 ../../output/obj/PRELOADER_OBJ/obj/bmt.o
 .text          0x00000000        0x0 ../../output/obj/PRELOADER_OBJ/obj/circbuf.o
 .data          0x00000000        0x0 ../../output/obj/PRELOADER_OBJ/obj/circbuf.o
 .bss           0x00000000        0x0 ../../output/obj/PRELOADER_OBJ/obj/circbuf.o
 .note.GNU-stack
                0x00000000        0x0 ../../output/obj/PRELOADER_OBJ/obj/circbuf.o
 .text          0x00000000        0x0 ../../output/obj/PRELOADER_OBJ/obj/cust_part.o
 .data          0x00000000        0x0 ../../output/obj/PRELOADER_OBJ/obj/cust_part.o
 .bss           0x00000000        0x0 ../../output/obj/PRELOADER_OBJ/obj/cust_part.o
 .note.GNU-stack
                0x00000000        0x0 ../../output/obj/PRELOADER_OBJ/obj/cust_part.o
 .text          0x00000000        0x0 ../../output/obj/PRELOADER_OBJ/obj/custom_emi.o
 .data          0x00000000        0x0 ../../output/obj/PRELOADER_OBJ/obj/custom_emi.o
 .bss           0x00000000        0x0 ../../output/obj/PRELOADER_OBJ/obj/custom_emi.o
 .note.GNU-stack
                0x00000000        0x0 ../../output/obj/PRELOADER_OBJ/obj/custom_emi.o
 .text          0x00000000        0x0 ../../output/obj/PRELOADER_OBJ/obj/device_apc.o
 .data          0x00000000        0x0 ../../output/obj/PRELOADER_OBJ/obj/device_apc.o
 .bss           0x00000000        0x0 ../../output/obj/PRELOADER_OBJ/obj/device_apc.o
 .note.GNU-stack
                0x00000000        0x0 ../../output/obj/PRELOADER_OBJ/obj/device_apc.o
 .text          0x00000000        0x0 ../../output/obj/PRELOADER_OBJ/obj/div0.o
 .data          0x00000000        0x0 ../../output/obj/PRELOADER_OBJ/obj/div0.o
 .bss           0x00000000        0x0 ../../output/obj/PRELOADER_OBJ/obj/div0.o
 .note.GNU-stack
                0x00000000        0x0 ../../output/obj/PRELOADER_OBJ/obj/div0.o
 .text          0x00000000        0x0 ../../output/obj/PRELOADER_OBJ/obj/download.o
 .data          0x00000000        0x0 ../../output/obj/PRELOADER_OBJ/obj/download.o
 .bss           0x00000000        0x0 ../../output/obj/PRELOADER_OBJ/obj/download.o
 .note.GNU-stack
                0x00000000        0x0 ../../output/obj/PRELOADER_OBJ/obj/download.o
 .text          0x00000000        0x0 ../../output/obj/PRELOADER_OBJ/obj/download_legacy.o
 .data          0x00000000        0x0 ../../output/obj/PRELOADER_OBJ/obj/download_legacy.o
 .bss           0x00000000        0x0 ../../output/obj/PRELOADER_OBJ/obj/download_legacy.o
 .note.GNU-stack
                0x00000000        0x0 ../../output/obj/PRELOADER_OBJ/obj/download_legacy.o
 .text          0x00000000        0x0 ../../output/obj/PRELOADER_OBJ/obj/download_legacy_utils.o
 .data          0x00000000        0x0 ../../output/obj/PRELOADER_OBJ/obj/download_legacy_utils.o
 .bss           0x00000000        0x0 ../../output/obj/PRELOADER_OBJ/obj/download_legacy_utils.o
 .note.GNU-stack
                0x00000000        0x0 ../../output/obj/PRELOADER_OBJ/obj/download_legacy_utils.o
 .data          0x00000000        0x0 ../../output/obj/PRELOADER_OBJ/obj/eabi.o
 .bss           0x00000000        0x0 ../../output/obj/PRELOADER_OBJ/obj/eabi.o
 .data          0x00000000        0x0 ../../output/obj/PRELOADER_OBJ/obj/eabi_idiv.o
 .bss           0x00000000        0x0 ../../output/obj/PRELOADER_OBJ/obj/eabi_idiv.o
 .data          0x00000000        0x0 ../../output/obj/PRELOADER_OBJ/obj/eabi_uldivmod.o
 .bss           0x00000000        0x0 ../../output/obj/PRELOADER_OBJ/obj/eabi_uldivmod.o
 .text          0x00000000        0x0 ../../output/obj/PRELOADER_OBJ/obj/gpio.o
 .data          0x00000000        0x0 ../../output/obj/PRELOADER_OBJ/obj/gpio.o
 .bss           0x00000000        0x0 ../../output/obj/PRELOADER_OBJ/obj/gpio.o
 .text.mt_get_gpio_dir_chip
                0x00000000       0x30 ../../output/obj/PRELOADER_OBJ/obj/gpio.o
 .text.mt_get_gpio_pull_enable_chip
                0x00000000       0x48 ../../output/obj/PRELOADER_OBJ/obj/gpio.o
 .text.mt_get_gpio_pull_select_chip
                0x00000000       0x48 ../../output/obj/PRELOADER_OBJ/obj/gpio.o
 .text.mt_set_gpio_inversion_chip
                0x00000000       0x44 ../../output/obj/PRELOADER_OBJ/obj/gpio.o
 .text.mt_get_gpio_inversion_chip
                0x00000000       0x3c ../../output/obj/PRELOADER_OBJ/obj/gpio.o
 .text.mt_set_gpio_out_chip
                0x00000000       0x4c ../../output/obj/PRELOADER_OBJ/obj/gpio.o
 .text.mt_get_gpio_out_chip
                0x00000000       0x30 ../../output/obj/PRELOADER_OBJ/obj/gpio.o
 .text.mt_get_gpio_in_chip
                0x00000000       0x30 ../../output/obj/PRELOADER_OBJ/obj/gpio.o
 .text.mt_get_gpio_mode_chip
                0x00000000       0x2c ../../output/obj/PRELOADER_OBJ/obj/gpio.o
 .text.mt_set_clock_output
                0x00000000       0x2c ../../output/obj/PRELOADER_OBJ/obj/gpio.o
 .text.mt_get_clock_output
                0x00000000       0x48 ../../output/obj/PRELOADER_OBJ/obj/gpio.o
 .text.mt_get_gpio_dir
                0x00000000        0x4 ../../output/obj/PRELOADER_OBJ/obj/gpio.o
 .text.mt_get_gpio_pull_enable
                0x00000000        0x4 ../../output/obj/PRELOADER_OBJ/obj/gpio.o
 .text.mt_get_gpio_pull_select
                0x00000000        0x4 ../../output/obj/PRELOADER_OBJ/obj/gpio.o
 .text.mt_set_gpio_inversion
                0x00000000        0x4 ../../output/obj/PRELOADER_OBJ/obj/gpio.o
 .text.mt_get_gpio_inversion
                0x00000000        0x4 ../../output/obj/PRELOADER_OBJ/obj/gpio.o
 .text.mt_set_gpio_out
                0x00000000        0x4 ../../output/obj/PRELOADER_OBJ/obj/gpio.o
 .text.mt_get_gpio_out
                0x00000000        0x4 ../../output/obj/PRELOADER_OBJ/obj/gpio.o
 .text.mt_get_gpio_in
                0x00000000        0x4 ../../output/obj/PRELOADER_OBJ/obj/gpio.o
 .text.mt_get_gpio_mode
                0x00000000        0x4 ../../output/obj/PRELOADER_OBJ/obj/gpio.o
 .text.mt_gpio_set_power
                0x00000000        0x2 ../../output/obj/PRELOADER_OBJ/obj/gpio.o
 .data.DATAINV_addr
                0x00000000      0x268 ../../output/obj/PRELOADER_OBJ/obj/gpio.o
 .data.DATAINV_offset
                0x00000000       0x9a ../../output/obj/PRELOADER_OBJ/obj/gpio.o
 .rodata.str1.1
                0x00000000       0x12 ../../output/obj/PRELOADER_OBJ/obj/gpio.o
 .rodata.clkout_reg_addr
                0x00000000       0x18 ../../output/obj/PRELOADER_OBJ/obj/gpio.o
 .note.GNU-stack
                0x00000000        0x0 ../../output/obj/PRELOADER_OBJ/obj/gpio.o
 .text          0x00000000        0x0 ../../output/obj/PRELOADER_OBJ/obj/handshake_uart.o
 .bss           0x00000000        0x0 ../../output/obj/PRELOADER_OBJ/obj/handshake_uart.o
 .note.GNU-stack
                0x00000000        0x0 ../../output/obj/PRELOADER_OBJ/obj/handshake_uart.o
 .text          0x00000000        0x0 ../../output/obj/PRELOADER_OBJ/obj/handshake_usb.o
 .bss           0x00000000        0x0 ../../output/obj/PRELOADER_OBJ/obj/handshake_usb.o
 .note.GNU-stack
                0x00000000        0x0 ../../output/obj/PRELOADER_OBJ/obj/handshake_usb.o
 .text          0x00000000        0x0 ../../output/obj/PRELOADER_OBJ/obj/init.o
 .data          0x00000000        0x0 ../../output/obj/PRELOADER_OBJ/obj/init.o
 .bss           0x00000000        0x0 ../../output/obj/PRELOADER_OBJ/obj/init.o
 .text          0x00000000        0x0 ../../output/obj/PRELOADER_OBJ/obj/main.o
 .data          0x00000000        0x0 ../../output/obj/PRELOADER_OBJ/obj/main.o
 .bss           0x00000000        0x0 ../../output/obj/PRELOADER_OBJ/obj/main.o
 .note.GNU-stack
                0x00000000        0x0 ../../output/obj/PRELOADER_OBJ/obj/main.o
 .text          0x00000000       0xbc ../../output/obj/PRELOADER_OBJ/obj/memory_test.o
 .data          0x00000000        0x0 ../../output/obj/PRELOADER_OBJ/obj/memory_test.o
 .bss           0x00000000        0x0 ../../output/obj/PRELOADER_OBJ/obj/memory_test.o
 .text          0x00000000        0x0 ../../output/obj/PRELOADER_OBJ/obj/mmc_common_inter.o
 .data          0x00000000        0x0 ../../output/obj/PRELOADER_OBJ/obj/mmc_common_inter.o
 .bss           0x00000000        0x0 ../../output/obj/PRELOADER_OBJ/obj/mmc_common_inter.o
 .text.mmc_virt_to_phys
                0x00000000       0x40 ../../output/obj/PRELOADER_OBJ/obj/mmc_common_inter.o
 .text.mmc_switch_part
                0x00000000       0x6c ../../output/obj/PRELOADER_OBJ/obj/mmc_common_inter.o
 .text.mmc_bwrite
                0x00000000       0x34 ../../output/obj/PRELOADER_OBJ/obj/mmc_common_inter.o
 .text.mmc_bread
                0x00000000       0x34 ../../output/obj/PRELOADER_OBJ/obj/mmc_common_inter.o
 .text.mmc_init_device
                0x00000000      0x220 ../../output/obj/PRELOADER_OBJ/obj/mmc_common_inter.o
 .text.mmc_get_device_id
                0x00000000       0x9a ../../output/obj/PRELOADER_OBJ/obj/mmc_common_inter.o
 .bss.g_addr_trans_tbl
                0x00000000        0x8 ../../output/obj/PRELOADER_OBJ/obj/mmc_common_inter.o
 .bss.g_mmc_bdev
                0x00000000       0x28 ../../output/obj/PRELOADER_OBJ/obj/mmc_common_inter.o
 .rodata.str1.1
                0x00000000       0x18 ../../output/obj/PRELOADER_OBJ/obj/mmc_common_inter.o
 .bss.g_emmc_size
                0x00000000        0x8 ../../output/obj/PRELOADER_OBJ/obj/mmc_common_inter.o
 .bss.g_emmc_addr_trans
                0x00000000       0x90 ../../output/obj/PRELOADER_OBJ/obj/mmc_common_inter.o
 .note.GNU-stack
                0x00000000        0x0 ../../output/obj/PRELOADER_OBJ/obj/mmc_common_inter.o
 .text          0x00000000        0x0 ../../output/obj/PRELOADER_OBJ/obj/mmc_core.o
 .data          0x00000000        0x0 ../../output/obj/PRELOADER_OBJ/obj/mmc_core.o
 .bss           0x00000000        0x0 ../../output/obj/PRELOADER_OBJ/obj/mmc_core.o
 .text.unstuff_bits
                0x00000000       0x3a ../../output/obj/PRELOADER_OBJ/obj/mmc_core.o
 .text.mmc_get_host
                0x00000000       0x18 ../../output/obj/PRELOADER_OBJ/obj/mmc_core.o
 .text.mmc_get_card
                0x00000000       0x1c ../../output/obj/PRELOADER_OBJ/obj/mmc_core.o
 .text.mmc_cmd  0x00000000       0x32 ../../output/obj/PRELOADER_OBJ/obj/mmc_core.o
 .text.mmc_send_if_cond
                0x00000000       0x40 ../../output/obj/PRELOADER_OBJ/obj/mmc_core.o
 .text.mmc_app_cmd
                0x00000000       0x3c ../../output/obj/PRELOADER_OBJ/obj/mmc_core.o
 .text.mmc_send_app_op_cond
                0x00000000       0x4a ../../output/obj/PRELOADER_OBJ/obj/mmc_core.o
 .text.mmc_send_op_cond
                0x00000000       0x4a ../../output/obj/PRELOADER_OBJ/obj/mmc_core.o
 .text.mmc_sd_switch.isra.0.constprop.3
                0x00000000       0x8c ../../output/obj/PRELOADER_OBJ/obj/mmc_core.o
 .text.mmc_select_voltage
                0x00000000       0x46 ../../output/obj/PRELOADER_OBJ/obj/mmc_core.o
 .text.mmc_go_idle
                0x00000000       0x1e ../../output/obj/PRELOADER_OBJ/obj/mmc_core.o
 .text.mmc_send_status
                0x00000000       0x2c ../../output/obj/PRELOADER_OBJ/obj/mmc_core.o
 .text.mmc_select_card
                0x00000000       0x24 ../../output/obj/PRELOADER_OBJ/obj/mmc_core.o
 .text.mmc_send_relative_addr
                0x00000000       0x56 ../../output/obj/PRELOADER_OBJ/obj/mmc_core.o
 .text.mmc_switch
                0x00000000       0x84 ../../output/obj/PRELOADER_OBJ/obj/mmc_core.o
 .text.mmc_switch_hs
                0x00000000       0x50 ../../output/obj/PRELOADER_OBJ/obj/mmc_core.o
 .text.mmc_read_ext_csd
                0x00000000      0x1d0 ../../output/obj/PRELOADER_OBJ/obj/mmc_core.o
 .text.mmc_set_ext_csd
                0x00000000       0x42 ../../output/obj/PRELOADER_OBJ/obj/mmc_core.o
 .text.mmc_set_card_detect
                0x00000000       0x26 ../../output/obj/PRELOADER_OBJ/obj/mmc_core.o
 .text.mmc_set_blk_length
                0x00000000       0x32 ../../output/obj/PRELOADER_OBJ/obj/mmc_core.o
 .text.mmc_set_bus_width
                0x00000000      0x144 ../../output/obj/PRELOADER_OBJ/obj/mmc_core.o
 .text.mmc_set_write_prot
                0x00000000       0x32 ../../output/obj/PRELOADER_OBJ/obj/mmc_core.o
 .text.mmc_clr_write_prot
                0x00000000       0x32 ../../output/obj/PRELOADER_OBJ/obj/mmc_core.o
 .text.mmc_send_write_prot
                0x00000000       0x60 ../../output/obj/PRELOADER_OBJ/obj/mmc_core.o
 .text.mmc_send_write_prot_type
                0x00000000       0x60 ../../output/obj/PRELOADER_OBJ/obj/mmc_core.o
 .text.mmc_get_wpg_size
                0x00000000       0x44 ../../output/obj/PRELOADER_OBJ/obj/mmc_core.o
 .text.mmc_erase_start
                0x00000000       0x5c ../../output/obj/PRELOADER_OBJ/obj/mmc_core.o
 .text.mmc_erase_end
                0x00000000       0x5c ../../output/obj/PRELOADER_OBJ/obj/mmc_core.o
 .text.mmc_erase
                0x00000000       0x8c ../../output/obj/PRELOADER_OBJ/obj/mmc_core.o
 .text.mmc_set_clock
                0x00000000        0x4 ../../output/obj/PRELOADER_OBJ/obj/mmc_core.o
 .text.mmc_dev_bread
                0x00000000       0xa4 ../../output/obj/PRELOADER_OBJ/obj/mmc_core.o
 .text.mmc_block_read
                0x00000000       0x74 ../../output/obj/PRELOADER_OBJ/obj/mmc_core.o
 .text.mmc_block_write
                0x00000000       0xe8 ../../output/obj/PRELOADER_OBJ/obj/mmc_core.o
 .text.mmc_init_mem_card
                0x00000000      0x958 ../../output/obj/PRELOADER_OBJ/obj/mmc_core.o
 .text.mmc_init_card
                0x00000000       0xa0 ../../output/obj/PRELOADER_OBJ/obj/mmc_core.o
 .text.mmc_init_host
                0x00000000       0x24 ../../output/obj/PRELOADER_OBJ/obj/mmc_core.o
 .text.mmc_init
                0x00000000       0x70 ../../output/obj/PRELOADER_OBJ/obj/mmc_core.o
 .text.mmc_set_erase_grp_def
                0x00000000       0x2e ../../output/obj/PRELOADER_OBJ/obj/mmc_core.o
 .text.mmc_set_gp_size
                0x00000000       0x6c ../../output/obj/PRELOADER_OBJ/obj/mmc_core.o
 .text.mmc_set_part_config
                0x00000000       0x20 ../../output/obj/PRELOADER_OBJ/obj/mmc_core.o
 .text.mmc_set_part_attr
                0x00000000       0x38 ../../output/obj/PRELOADER_OBJ/obj/mmc_core.o
 .text.mmc_set_part_compl
                0x00000000       0x1a ../../output/obj/PRELOADER_OBJ/obj/mmc_core.o
 .text.mmc_set_enh_size
                0x00000000       0x56 ../../output/obj/PRELOADER_OBJ/obj/mmc_core.o
 .text.mmc_set_enh_start_addr
                0x00000000       0x46 ../../output/obj/PRELOADER_OBJ/obj/mmc_core.o
 .text.mmc_stuff_buff
                0x00000000       0x40 ../../output/obj/PRELOADER_OBJ/obj/mmc_core.o
 .text.mmc_get_sandisk_fwid
                0x00000000      0x134 ../../output/obj/PRELOADER_OBJ/obj/mmc_core.o
 .rodata.tran_mant
                0x00000000       0x10 ../../output/obj/PRELOADER_OBJ/obj/mmc_core.o
 .rodata        0x00000000        0x4 ../../output/obj/PRELOADER_OBJ/obj/mmc_core.o
 .bss.sd_card   0x00000000      0x5b0 ../../output/obj/PRELOADER_OBJ/obj/mmc_core.o
 .bss.sd_host   0x00000000       0xc8 ../../output/obj/PRELOADER_OBJ/obj/mmc_core.o
 .rodata.str1.1
                0x00000000      0x554 ../../output/obj/PRELOADER_OBJ/obj/mmc_core.o
 .rodata.tran_exp
                0x00000000       0x20 ../../output/obj/PRELOADER_OBJ/obj/mmc_core.o
 .rodata.tacc_exp
                0x00000000       0x20 ../../output/obj/PRELOADER_OBJ/obj/mmc_core.o
 .rodata.tacc_mant
                0x00000000       0x40 ../../output/obj/PRELOADER_OBJ/obj/mmc_core.o
 .note.GNU-stack
                0x00000000        0x0 ../../output/obj/PRELOADER_OBJ/obj/mmc_core.o
 .text          0x00000000        0x0 ../../output/obj/PRELOADER_OBJ/obj/mmc_dbg.o
 .data          0x00000000        0x0 ../../output/obj/PRELOADER_OBJ/obj/mmc_dbg.o
 .bss           0x00000000        0x0 ../../output/obj/PRELOADER_OBJ/obj/mmc_dbg.o
 .note.GNU-stack
                0x00000000        0x0 ../../output/obj/PRELOADER_OBJ/obj/mmc_dbg.o
 .text          0x00000000        0x0 ../../output/obj/PRELOADER_OBJ/obj/mmc_test.o
 .data          0x00000000        0x0 ../../output/obj/PRELOADER_OBJ/obj/mmc_test.o
 .bss           0x00000000        0x0 ../../output/obj/PRELOADER_OBJ/obj/mmc_test.o
 .note.GNU-stack
                0x00000000        0x0 ../../output/obj/PRELOADER_OBJ/obj/mmc_test.o
 .text          0x00000000        0x0 ../../output/obj/PRELOADER_OBJ/obj/msdc.o
 .data          0x00000000        0x0 ../../output/obj/PRELOADER_OBJ/obj/msdc.o
 .bss           0x00000000        0x0 ../../output/obj/PRELOADER_OBJ/obj/msdc.o
 .text.uffs.part.0
                0x00000000       0x30 ../../output/obj/PRELOADER_OBJ/obj/msdc.o
 .text.msdc_set_timeout
                0x00000000       0x58 ../../output/obj/PRELOADER_OBJ/obj/msdc.o
 .text.msdc_set_blklen
                0x00000000       0x54 ../../output/obj/PRELOADER_OBJ/obj/msdc.o
 .text.msdc_set_blknum
                0x00000000        0x6 ../../output/obj/PRELOADER_OBJ/obj/msdc.o
 .text.msdc_set_dmode
                0x00000000       0x24 ../../output/obj/PRELOADER_OBJ/obj/msdc.o
 .text.msdc_set_pio_bits
                0x00000000        0x6 ../../output/obj/PRELOADER_OBJ/obj/msdc.o
 .text.msdc_set_autocmd
                0x00000000       0x12 ../../output/obj/PRELOADER_OBJ/obj/msdc.o
 .text.msdc_set_smt
                0x00000000       0x20 ../../output/obj/PRELOADER_OBJ/obj/msdc.o
 .text.msdc_set_rdtdsel
                0x00000000       0xc4 ../../output/obj/PRELOADER_OBJ/obj/msdc.o
 .text.msdc_set_driving
                0x00000000       0x58 ../../output/obj/PRELOADER_OBJ/obj/msdc.o
 .text.msdc_pad_ctrl_init
                0x00000000      0x108 ../../output/obj/PRELOADER_OBJ/obj/msdc.o
 .text.msdc_pin_clk_pud
                0x00000000       0x34 ../../output/obj/PRELOADER_OBJ/obj/msdc.o
 .text.msdc_pin_pud
                0x00000000       0x14 ../../output/obj/PRELOADER_OBJ/obj/msdc.o
 .text.msdc_pin_pnul
                0x00000000        0x2 ../../output/obj/PRELOADER_OBJ/obj/msdc.o
 .text.msdc_config_clksrc
                0x00000000       0x7c ../../output/obj/PRELOADER_OBJ/obj/msdc.o
 .text.msdc_config_clock
                0x00000000      0x160 ../../output/obj/PRELOADER_OBJ/obj/msdc.o
 .text.msdc_clock
                0x00000000        0x2 ../../output/obj/PRELOADER_OBJ/obj/msdc.o
 .text.msdc_config_bus
                0x00000000       0x3c ../../output/obj/PRELOADER_OBJ/obj/msdc.o
 .text.msdc_config_smpl
                0x00000000       0x66 ../../output/obj/PRELOADER_OBJ/obj/msdc.o
 .text.msdc_config_pin
                0x00000000       0x18 ../../output/obj/PRELOADER_OBJ/obj/msdc.o
 .text.msdc_set_host_pwr
                0x00000000        0x2 ../../output/obj/PRELOADER_OBJ/obj/msdc.o
 .text.msdc_host_power
                0x00000000       0x3a ../../output/obj/PRELOADER_OBJ/obj/msdc.o
 .text.msdc_card_power
                0x00000000        0x2 ../../output/obj/PRELOADER_OBJ/obj/msdc.o
 .text.msdc_power
                0x00000000       0x2e ../../output/obj/PRELOADER_OBJ/obj/msdc.o
 .text.msdc_intr_unmask
                0x00000000        0xa ../../output/obj/PRELOADER_OBJ/obj/msdc.o
 .text.msdc_intr_mask
                0x00000000        0xc ../../output/obj/PRELOADER_OBJ/obj/msdc.o
 .text.msdc_send_cmd
                0x00000000      0x188 ../../output/obj/PRELOADER_OBJ/obj/msdc.o
 .text.msdc_wait_rsp
                0x00000000       0x88 ../../output/obj/PRELOADER_OBJ/obj/msdc.o
 .text.msdc_brk_cmd
                0x00000000        0xc ../../output/obj/PRELOADER_OBJ/obj/msdc.o
 .text.msdc_abort
                0x00000000       0xd4 ../../output/obj/PRELOADER_OBJ/obj/msdc.o
 .text.msdc_pio_read
                0x00000000      0x100 ../../output/obj/PRELOADER_OBJ/obj/msdc.o
 .text.msdc_pio_write
                0x00000000       0xa8 ../../output/obj/PRELOADER_OBJ/obj/msdc.o
 .text.msdc_set_tune_forcing
                0x00000000       0x14 ../../output/obj/PRELOADER_OBJ/obj/msdc.o
 .text.msdc_tune_cal_smaller_trial_clock
                0x00000000       0x98 ../../output/obj/PRELOADER_OBJ/obj/msdc.o
 .text.msdc_tune_cmdrsp
                0x00000000      0x39c ../../output/obj/PRELOADER_OBJ/obj/msdc.o
 .text.msdc_cmd
                0x00000000       0x46 ../../output/obj/PRELOADER_OBJ/obj/msdc.o
 .text.msdc_cmd_stop
                0x00000000       0x38 ../../output/obj/PRELOADER_OBJ/obj/msdc.o
 .text.msdc_abort_handler
                0x00000000       0xfc ../../output/obj/PRELOADER_OBJ/obj/msdc.o
 .text.msdc_pio_bwrite
                0x00000000       0xfc ../../output/obj/PRELOADER_OBJ/obj/msdc.o
 .text.msdc_pio_bread
                0x00000000      0x100 ../../output/obj/PRELOADER_OBJ/obj/msdc.o
 .text.msdc_pio_send_sandisk_fwid
                0x00000000      0x10c ../../output/obj/PRELOADER_OBJ/obj/msdc.o
 .text.msdc_tune_bread
                0x00000000      0x3c8 ../../output/obj/PRELOADER_OBJ/obj/msdc.o
 .text.msdc_reset_tune_counter
                0x00000000        0x6 ../../output/obj/PRELOADER_OBJ/obj/msdc.o
 .text.msdc_tune_read
                0x00000000      0x264 ../../output/obj/PRELOADER_OBJ/obj/msdc.o
 .text.msdc_tune_hs200
                0x00000000        0x4 ../../output/obj/PRELOADER_OBJ/obj/msdc.o
 .text.msdc_init_reg
                0x00000000       0xb0 ../../output/obj/PRELOADER_OBJ/obj/msdc.o
 .text.msdc_init
                0x00000000      0x27c ../../output/obj/PRELOADER_OBJ/obj/msdc.o
 .rodata        0x00000000        0x8 ../../output/obj/PRELOADER_OBJ/obj/msdc.o
 .bss.msdc_priv
                0x00000000       0x28 ../../output/obj/PRELOADER_OBJ/obj/msdc.o
 .bss.msdc_tune_forcing
                0x00000000        0x8 ../../output/obj/PRELOADER_OBJ/obj/msdc.o
 .rodata.str1.1
                0x00000000      0x4d1 ../../output/obj/PRELOADER_OBJ/obj/msdc.o
 .rodata.msdc_rsp
                0x00000000       0x24 ../../output/obj/PRELOADER_OBJ/obj/msdc.o
 .rodata.__func__.5414
                0x00000000       0x13 ../../output/obj/PRELOADER_OBJ/obj/msdc.o
 .bss.msdc_clock_divisor
                0x00000000        0x8 ../../output/obj/PRELOADER_OBJ/obj/msdc.o
 .note.GNU-stack
                0x00000000        0x0 ../../output/obj/PRELOADER_OBJ/obj/msdc.o
 .text          0x00000000        0x0 ../../output/obj/PRELOADER_OBJ/obj/msdc_cust.o
 .data          0x00000000        0x0 ../../output/obj/PRELOADER_OBJ/obj/msdc_cust.o
 .bss           0x00000000        0x0 ../../output/obj/PRELOADER_OBJ/obj/msdc_cust.o
 .data.msdc_cap
                0x00000000       0x14 ../../output/obj/PRELOADER_OBJ/obj/msdc_cust.o
 .data.msdc_src_clks
                0x00000000       0x20 ../../output/obj/PRELOADER_OBJ/obj/msdc_cust.o
 .note.GNU-stack
                0x00000000        0x0 ../../output/obj/PRELOADER_OBJ/obj/msdc_cust.o
 .text          0x00000000        0x0 ../../output/obj/PRELOADER_OBJ/obj/msdc_irq.o
 .data          0x00000000        0x0 ../../output/obj/PRELOADER_OBJ/obj/msdc_irq.o
 .bss           0x00000000        0x0 ../../output/obj/PRELOADER_OBJ/obj/msdc_irq.o
 .text.msdc_irq_init
                0x00000000        0x2 ../../output/obj/PRELOADER_OBJ/obj/msdc_irq.o
 .text.msdc_irq_deinit
                0x00000000        0x2 ../../output/obj/PRELOADER_OBJ/obj/msdc_irq.o
 .text.msdc_intr_wait
                0x00000000       0xb8 ../../output/obj/PRELOADER_OBJ/obj/msdc_irq.o
 .rodata.str1.1
                0x00000000       0x56 ../../output/obj/PRELOADER_OBJ/obj/msdc_irq.o
 .note.GNU-stack
                0x00000000        0x0 ../../output/obj/PRELOADER_OBJ/obj/msdc_irq.o
 .text          0x00000000        0x0 ../../output/obj/PRELOADER_OBJ/obj/msdc_utils.o
 .data          0x00000000        0x0 ../../output/obj/PRELOADER_OBJ/obj/msdc_utils.o
 .bss           0x00000000        0x0 ../../output/obj/PRELOADER_OBJ/obj/msdc_utils.o
 .note.GNU-stack
                0x00000000        0x0 ../../output/obj/PRELOADER_OBJ/obj/msdc_utils.o
 .text          0x00000000        0x0 ../../output/obj/PRELOADER_OBJ/obj/mt_emi.o
 .data          0x00000000        0x0 ../../output/obj/PRELOADER_OBJ/obj/mt_emi.o
 .bss           0x00000000        0x0 ../../output/obj/PRELOADER_OBJ/obj/mt_emi.o
 .bss.ddr_type  0x00000000        0x4 ../../output/obj/PRELOADER_OBJ/obj/mt_emi.o
 .note.GNU-stack
                0x00000000        0x0 ../../output/obj/PRELOADER_OBJ/obj/mt_emi.o
 .text          0x00000000        0x0 ../../output/obj/PRELOADER_OBJ/obj/mt_gpio_init.o
 .data          0x00000000        0x0 ../../output/obj/PRELOADER_OBJ/obj/mt_gpio_init.o
 .bss           0x00000000        0x0 ../../output/obj/PRELOADER_OBJ/obj/mt_gpio_init.o
 .text.mt_gpio_set_default_chip
                0x00000000       0x3c ../../output/obj/PRELOADER_OBJ/obj/mt_gpio_init.o
 .text.mt_gpio_set_default_ext
                0x00000000        0x2 ../../output/obj/PRELOADER_OBJ/obj/mt_gpio_init.o
 .text.mt_gpio_set_dsel
                0x00000000        0x2 ../../output/obj/PRELOADER_OBJ/obj/mt_gpio_init.o
 .text.mt_gpio_set_default
                0x00000000        0x4 ../../output/obj/PRELOADER_OBJ/obj/mt_gpio_init.o
 .rodata.gpio_init_value
                0x00000000      0x30c ../../output/obj/PRELOADER_OBJ/obj/mt_gpio_init.o
 .note.GNU-stack
                0x00000000        0x0 ../../output/obj/PRELOADER_OBJ/obj/mt_gpio_init.o
 .text          0x00000000        0x0 ../../output/obj/PRELOADER_OBJ/obj/mt_i2c.o
 .data          0x00000000        0x0 ../../output/obj/PRELOADER_OBJ/obj/mt_i2c.o
 .bss           0x00000000        0x0 ../../output/obj/PRELOADER_OBJ/obj/mt_i2c.o
 .text.mt_i2c_dump_info.isra.0
                0x00000000      0x100 ../../output/obj/PRELOADER_OBJ/obj/mt_i2c.o
 .text.mt_i2c_set_speed
                0x00000000      0x100 ../../output/obj/PRELOADER_OBJ/obj/mt_i2c.o
 .text.mt_i2c_init
                0x00000000        0x4 ../../output/obj/PRELOADER_OBJ/obj/mt_i2c.o
 .text.mt_i2c_deinit
                0x00000000       0x2c ../../output/obj/PRELOADER_OBJ/obj/mt_i2c.o
 .text.mt_i2c_read
                0x00000000      0x114 ../../output/obj/PRELOADER_OBJ/obj/mt_i2c.o
 .text.mt_i2c_write
                0x00000000       0xdc ../../output/obj/PRELOADER_OBJ/obj/mt_i2c.o
 .text.i2c_v1_init
                0x00000000        0x4 ../../output/obj/PRELOADER_OBJ/obj/mt_i2c.o
 .text.i2c_v1_deinit
                0x00000000        0x4 ../../output/obj/PRELOADER_OBJ/obj/mt_i2c.o
 .text.mt_i2c_read_new
                0x00000000      0x174 ../../output/obj/PRELOADER_OBJ/obj/mt_i2c.o
 .text.mt_i2c_write_new
                0x00000000      0x140 ../../output/obj/PRELOADER_OBJ/obj/mt_i2c.o
 .text.mt_i2c_write_read_new
                0x00000000      0x164 ../../output/obj/PRELOADER_OBJ/obj/mt_i2c.o
 .text.mt_i2c_test_eeprom
                0x00000000       0xbc ../../output/obj/PRELOADER_OBJ/obj/mt_i2c.o
 .text.mt_i2c_test
                0x00000000       0x48 ../../output/obj/PRELOADER_OBJ/obj/mt_i2c.o
 .rodata.str1.1
                0x00000000      0x6c0 ../../output/obj/PRELOADER_OBJ/obj/mt_i2c.o
 .rodata.mt_i2c_gpio_mode
                0x00000000        0x8 ../../output/obj/PRELOADER_OBJ/obj/mt_i2c.o
 .note.GNU-stack
                0x00000000        0x0 ../../output/obj/PRELOADER_OBJ/obj/mt_i2c.o
 .text          0x00000000        0x0 ../../output/obj/PRELOADER_OBJ/obj/mt_memory.o
 .data          0x00000000        0x0 ../../output/obj/PRELOADER_OBJ/obj/mt_memory.o
 .bss           0x00000000        0x0 ../../output/obj/PRELOADER_OBJ/obj/mt_memory.o
 .note.GNU-stack
                0x00000000        0x0 ../../output/obj/PRELOADER_OBJ/obj/mt_memory.o
 .text          0x00000000        0x0 ../../output/obj/PRELOADER_OBJ/obj/mt_mmmfg_sram_repair.o
 .data          0x00000000        0x0 ../../output/obj/PRELOADER_OBJ/obj/mt_mmmfg_sram_repair.o
 .bss           0x00000000        0x0 ../../output/obj/PRELOADER_OBJ/obj/mt_mmmfg_sram_repair.o
 .note.GNU-stack
                0x00000000        0x0 ../../output/obj/PRELOADER_OBJ/obj/mt_mmmfg_sram_repair.o
 .text          0x00000000        0x0 ../../output/obj/PRELOADER_OBJ/obj/mt_mmsys_mfg_onoff.o
 .data          0x00000000        0x0 ../../output/obj/PRELOADER_OBJ/obj/mt_mmsys_mfg_onoff.o
 .bss           0x00000000        0x0 ../../output/obj/PRELOADER_OBJ/obj/mt_mmsys_mfg_onoff.o
 .note.GNU-stack
                0x00000000        0x0 ../../output/obj/PRELOADER_OBJ/obj/mt_mmsys_mfg_onoff.o
 .text          0x00000000        0x0 ../../output/obj/PRELOADER_OBJ/obj/mt_pl_ptp.o
 .data          0x00000000        0x0 ../../output/obj/PRELOADER_OBJ/obj/mt_pl_ptp.o
 .bss           0x00000000        0x0 ../../output/obj/PRELOADER_OBJ/obj/mt_pl_ptp.o
 .note.GNU-stack
                0x00000000        0x0 ../../output/obj/PRELOADER_OBJ/obj/mt_pl_ptp.o
 .text          0x00000000        0x0 ../../output/obj/PRELOADER_OBJ/obj/mt_pmic_wrap_init.o
 .data          0x00000000        0x0 ../../output/obj/PRELOADER_OBJ/obj/mt_pmic_wrap_init.o
 .bss           0x00000000        0x0 ../../output/obj/PRELOADER_OBJ/obj/mt_pmic_wrap_init.o
 .text.wait_for_fsm_idle
                0x00000000        0xa ../../output/obj/PRELOADER_OBJ/obj/mt_pmic_wrap_init.o
 .text.pwrap_dump_all_register
                0x00000000       0x44 ../../output/obj/PRELOADER_OBJ/obj/mt_pmic_wrap_init.o
 .note.GNU-stack
                0x00000000        0x0 ../../output/obj/PRELOADER_OBJ/obj/mt_pmic_wrap_init.o
 .text          0x00000000        0x0 ../../output/obj/PRELOADER_OBJ/obj/mt_rtc.o
 .data          0x00000000        0x0 ../../output/obj/PRELOADER_OBJ/obj/mt_rtc.o
 .bss           0x00000000        0x0 ../../output/obj/PRELOADER_OBJ/obj/mt_rtc.o
 .text.rtc_rdwr_uart_bits
                0x00000000       0x48 ../../output/obj/PRELOADER_OBJ/obj/mt_rtc.o
 .note.GNU-stack
                0x00000000        0x0 ../../output/obj/PRELOADER_OBJ/obj/mt_rtc.o
 .text          0x00000000        0x0 ../../output/obj/PRELOADER_OBJ/obj/mt_usbd.o
 .data          0x00000000        0x0 ../../output/obj/PRELOADER_OBJ/obj/mt_usbd.o
 .bss           0x00000000        0x0 ../../output/obj/PRELOADER_OBJ/obj/mt_usbd.o
 .text.udc_disable
                0x00000000        0x2 ../../output/obj/PRELOADER_OBJ/obj/mt_usbd.o
 .text.get_linestate
                0x00000000       0x2c ../../output/obj/PRELOADER_OBJ/obj/mt_usbd.o
 .note.GNU-stack
                0x00000000        0x0 ../../output/obj/PRELOADER_OBJ/obj/mt_usbd.o
 .text          0x00000000        0x0 ../../output/obj/PRELOADER_OBJ/obj/mt_usbphy.o
 .data          0x00000000        0x0 ../../output/obj/PRELOADER_OBJ/obj/mt_usbphy.o
 .bss           0x00000000        0x0 ../../output/obj/PRELOADER_OBJ/obj/mt_usbphy.o
 .text.mt_usb11_phy_savecurrent
                0x00000000       0xc0 ../../output/obj/PRELOADER_OBJ/obj/mt_usbphy.o
 .text.mt_usb_set_to_usb_mode
                0x00000000        0xc ../../output/obj/PRELOADER_OBJ/obj/mt_usbphy.o
 .note.GNU-stack
                0x00000000        0x0 ../../output/obj/PRELOADER_OBJ/obj/mt_usbphy.o
 .text          0x00000000        0x0 ../../output/obj/PRELOADER_OBJ/obj/mt_usbtty.o
 .data          0x00000000        0x0 ../../output/obj/PRELOADER_OBJ/obj/mt_usbtty.o
 .bss           0x00000000        0x0 ../../output/obj/PRELOADER_OBJ/obj/mt_usbtty.o
 .text.mt_usbtty_tstc
                0x00000000       0x18 ../../output/obj/PRELOADER_OBJ/obj/mt_usbtty.o
 .text.mt_usbtty_getc
                0x00000000       0x28 ../../output/obj/PRELOADER_OBJ/obj/mt_usbtty.o
 .text.mt_usbtty_putc
                0x00000000       0x2c ../../output/obj/PRELOADER_OBJ/obj/mt_usbtty.o
 .bss.serialstate
                0x00000000        0x2 ../../output/obj/PRELOADER_OBJ/obj/mt_usbtty.o
 .note.GNU-stack
                0x00000000        0x0 ../../output/obj/PRELOADER_OBJ/obj/mt_usbtty.o
 .text          0x00000000        0x0 ../../output/obj/PRELOADER_OBJ/obj/mtk_key.o
 .data          0x00000000        0x0 ../../output/obj/PRELOADER_OBJ/obj/mtk_key.o
 .bss           0x00000000        0x0 ../../output/obj/PRELOADER_OBJ/obj/mtk_key.o
 .text.disable_PMIC_kpd_clock
                0x00000000        0x2 ../../output/obj/PRELOADER_OBJ/obj/mtk_key.o
 .note.GNU-stack
                0x00000000        0x0 ../../output/obj/PRELOADER_OBJ/obj/mtk_key.o
 .text          0x00000000        0x0 ../../output/obj/PRELOADER_OBJ/obj/mtk_nand.o
 .data          0x00000000        0x0 ../../output/obj/PRELOADER_OBJ/obj/mtk_nand.o
 .bss           0x00000000        0x0 ../../output/obj/PRELOADER_OBJ/obj/mtk_nand.o
 .text.LOGICAL_ADDR
                0x00000000       0x18 ../../output/obj/PRELOADER_OBJ/obj/mtk_nand.o
 .text.BLOCK_ALIGN
                0x00000000       0x20 ../../output/obj/PRELOADER_OBJ/obj/mtk_nand.o
 .text.mtk_nand_wait_for_finish
                0x00000000       0x10 ../../output/obj/PRELOADER_OBJ/obj/mtk_nand.o
 .text.Invert_Bits
                0x00000000       0x20 ../../output/obj/PRELOADER_OBJ/obj/mtk_nand.o
 .text.compare_page
                0x00000000       0x84 ../../output/obj/PRELOADER_OBJ/obj/mtk_nand.o
 .text.empty_page
                0x00000000       0x18 ../../output/obj/PRELOADER_OBJ/obj/mtk_nand.o
 .text.__nand_ecc_test
                0x00000000      0x228 ../../output/obj/PRELOADER_OBJ/obj/mtk_nand.o
 .text.nand_ecc_test
                0x00000000       0x48 ../../output/obj/PRELOADER_OBJ/obj/mtk_nand.o
 .bss.ext_id3   0x00000000        0x1 ../../output/obj/PRELOADER_OBJ/obj/mtk_nand.o
 .data.rel.local.nand_manuf_ids
                0x00000000       0x50 ../../output/obj/PRELOADER_OBJ/obj/mtk_nand.o
 .bss.g_dev_vfunc
                0x00000000       0x20 ../../output/obj/PRELOADER_OBJ/obj/mtk_nand.o
 .bss.gdevice_info
                0x00000000        0x8 ../../output/obj/PRELOADER_OBJ/obj/mtk_nand.o
 .bss.ext_id1   0x00000000        0x1 ../../output/obj/PRELOADER_OBJ/obj/mtk_nand.o
 .note.GNU-stack
                0x00000000        0x0 ../../output/obj/PRELOADER_OBJ/obj/mtk_nand.o
 .text          0x00000000        0x0 ../../output/obj/PRELOADER_OBJ/obj/mtk_pll.o
 .data          0x00000000        0x0 ../../output/obj/PRELOADER_OBJ/obj/mtk_pll.o
 .bss           0x00000000        0x0 ../../output/obj/PRELOADER_OBJ/obj/mtk_pll.o
 .text.mtk_get_bus_freq
                0x00000000       0x90 ../../output/obj/PRELOADER_OBJ/obj/mtk_pll.o
 .text.mtk_pll_post_init
                0x00000000        0x2 ../../output/obj/PRELOADER_OBJ/obj/mtk_pll.o
 .text.mtk_get_uart_clock
                0x00000000       0x24 ../../output/obj/PRELOADER_OBJ/obj/mtk_pll.o
 .note.GNU-stack
                0x00000000        0x0 ../../output/obj/PRELOADER_OBJ/obj/mtk_pll.o
 .text          0x00000000        0x0 ../../output/obj/PRELOADER_OBJ/obj/mtk_pmic_6323.o
 .data          0x00000000        0x0 ../../output/obj/PRELOADER_OBJ/obj/mtk_pmic_6323.o
 .bss           0x00000000        0x0 ../../output/obj/PRELOADER_OBJ/obj/mtk_pmic_6323.o
 .note.GNU-stack
                0x00000000        0x0 ../../output/obj/PRELOADER_OBJ/obj/mtk_pmic_6323.o
 .text          0x00000000        0x0 ../../output/obj/PRELOADER_OBJ/obj/mtk_timer.o
 .data          0x00000000        0x0 ../../output/obj/PRELOADER_OBJ/obj/mtk_timer.o
 .bss           0x00000000        0x0 ../../output/obj/PRELOADER_OBJ/obj/mtk_timer.o
 .note.GNU-stack
                0x00000000        0x0 ../../output/obj/PRELOADER_OBJ/obj/mtk_timer.o
 .text          0x00000000        0x0 ../../output/obj/PRELOADER_OBJ/obj/mtk_wdt.o
 .data          0x00000000        0x0 ../../output/obj/PRELOADER_OBJ/obj/mtk_wdt.o
 .bss           0x00000000        0x0 ../../output/obj/PRELOADER_OBJ/obj/mtk_wdt.o
 .text.mtk_wdt_sw_reset
                0x00000000       0x24 ../../output/obj/PRELOADER_OBJ/obj/mtk_wdt.o
 .text.mtk_is_rgu_trigger_reset
                0x00000000       0x14 ../../output/obj/PRELOADER_OBJ/obj/mtk_wdt.o
 .note.GNU-stack
                0x00000000        0x0 ../../output/obj/PRELOADER_OBJ/obj/mtk_wdt.o
 .text          0x00000000        0x0 ../../output/obj/PRELOADER_OBJ/obj/part.o
 .data          0x00000000        0x0 ../../output/obj/PRELOADER_OBJ/obj/part.o
 .bss           0x00000000        0x0 ../../output/obj/PRELOADER_OBJ/obj/part.o
 .note.GNU-stack
                0x00000000        0x0 ../../output/obj/PRELOADER_OBJ/obj/part.o
 .text          0x00000000        0x0 ../../output/obj/PRELOADER_OBJ/obj/partition_mt.o
 .data          0x00000000        0x0 ../../output/obj/PRELOADER_OBJ/obj/partition_mt.o
 .bss           0x00000000        0x0 ../../output/obj/PRELOADER_OBJ/obj/partition_mt.o
 .text.find_empty_page_from_top
                0x00000000      0x114 ../../output/obj/PRELOADER_OBJ/obj/partition_mt.o
 .text.new_part_tab
                0x00000000      0x2ec ../../output/obj/PRELOADER_OBJ/obj/partition_mt.o
 .text.update_part_tab
                0x00000000      0x228 ../../output/obj/PRELOADER_OBJ/obj/partition_mt.o
 .bss.sig_buf   0x00000000        0x4 ../../output/obj/PRELOADER_OBJ/obj/partition_mt.o
 .data.page_buf
                0x00000000        0x4 ../../output/obj/PRELOADER_OBJ/obj/partition_mt.o
 .note.GNU-stack
                0x00000000        0x0 ../../output/obj/PRELOADER_OBJ/obj/partition_mt.o
 .text          0x00000000        0x0 ../../output/obj/PRELOADER_OBJ/obj/platform.o
 .data          0x00000000        0x0 ../../output/obj/PRELOADER_OBJ/obj/platform.o
 .bss           0x00000000        0x0 ../../output/obj/PRELOADER_OBJ/obj/platform.o
 .text.platform_set_boot_args
                0x00000000       0xf4 ../../output/obj/PRELOADER_OBJ/obj/platform.o
 .text.platform_set_dl_boot_args
                0x00000000       0x14 ../../output/obj/PRELOADER_OBJ/obj/platform.o
 .text.bootup_slave_cpu
                0x00000000      0x104 ../../output/obj/PRELOADER_OBJ/obj/platform.o
 .bss.g_boot_dev
                0x00000000       0x20 ../../output/obj/PRELOADER_OBJ/obj/platform.o
 .note.GNU-stack
                0x00000000        0x0 ../../output/obj/PRELOADER_OBJ/obj/platform.o
 .text          0x00000000        0x0 ../../output/obj/PRELOADER_OBJ/obj/print.o
 .data          0x00000000        0x0 ../../output/obj/PRELOADER_OBJ/obj/print.o
 .bss           0x00000000        0x0 ../../output/obj/PRELOADER_OBJ/obj/print.o
 .note.GNU-stack
                0x00000000        0x0 ../../output/obj/PRELOADER_OBJ/obj/print.o
 .text          0x00000000        0x0 ../../output/obj/PRELOADER_OBJ/obj/sec.o
 .data          0x00000000        0x0 ../../output/obj/PRELOADER_OBJ/obj/sec.o
 .bss           0x00000000        0x0 ../../output/obj/PRELOADER_OBJ/obj/sec.o
 .note.GNU-stack
                0x00000000        0x0 ../../output/obj/PRELOADER_OBJ/obj/sec.o
 .text          0x00000000        0x0 ../../output/obj/PRELOADER_OBJ/obj/sec_auth.o
 .data          0x00000000        0x0 ../../output/obj/PRELOADER_OBJ/obj/sec_auth.o
 .bss           0x00000000        0x0 ../../output/obj/PRELOADER_OBJ/obj/sec_auth.o
 .note.GNU-stack
                0x00000000        0x0 ../../output/obj/PRELOADER_OBJ/obj/sec_auth.o
 .text          0x00000000        0x0 ../../output/obj/PRELOADER_OBJ/obj/sec_boot.o
 .data          0x00000000        0x0 ../../output/obj/PRELOADER_OBJ/obj/sec_boot.o
 .bss           0x00000000        0x0 ../../output/obj/PRELOADER_OBJ/obj/sec_boot.o
 .note.GNU-stack
                0x00000000        0x0 ../../output/obj/PRELOADER_OBJ/obj/sec_boot.o
 .text          0x00000000        0x0 ../../output/obj/PRELOADER_OBJ/obj/sec_ctrl.o
 .data          0x00000000        0x0 ../../output/obj/PRELOADER_OBJ/obj/sec_ctrl.o
 .bss           0x00000000        0x0 ../../output/obj/PRELOADER_OBJ/obj/sec_ctrl.o
 .note.GNU-stack
                0x00000000        0x0 ../../output/obj/PRELOADER_OBJ/obj/sec_ctrl.o
 .text          0x00000000        0x0 ../../output/obj/PRELOADER_OBJ/obj/sec_flashtool_cfg.o
 .data          0x00000000        0x0 ../../output/obj/PRELOADER_OBJ/obj/sec_flashtool_cfg.o
 .bss           0x00000000        0x0 ../../output/obj/PRELOADER_OBJ/obj/sec_flashtool_cfg.o
 .note.GNU-stack
                0x00000000        0x0 ../../output/obj/PRELOADER_OBJ/obj/sec_flashtool_cfg.o
 .text          0x00000000        0x0 ../../output/obj/PRELOADER_OBJ/obj/sec_key.o
 .data          0x00000000        0x0 ../../output/obj/PRELOADER_OBJ/obj/sec_key.o
 .bss           0x00000000        0x0 ../../output/obj/PRELOADER_OBJ/obj/sec_key.o
 .note.GNU-stack
                0x00000000        0x0 ../../output/obj/PRELOADER_OBJ/obj/sec_key.o
 .text          0x00000000        0x0 ../../output/obj/PRELOADER_OBJ/obj/sec_region.o
 .data          0x00000000        0x0 ../../output/obj/PRELOADER_OBJ/obj/sec_region.o
 .bss           0x00000000        0x0 ../../output/obj/PRELOADER_OBJ/obj/sec_region.o
 .text.da_region_check
                0x00000000       0x1a ../../output/obj/PRELOADER_OBJ/obj/sec_region.o
 .note.GNU-stack
                0x00000000        0x0 ../../output/obj/PRELOADER_OBJ/obj/sec_region.o
 .text          0x00000000        0x0 ../../output/obj/PRELOADER_OBJ/obj/sec_rom_info.o
 .data          0x00000000        0x0 ../../output/obj/PRELOADER_OBJ/obj/sec_rom_info.o
 .bss           0x00000000        0x0 ../../output/obj/PRELOADER_OBJ/obj/sec_rom_info.o
 .note.GNU-stack
                0x00000000        0x0 ../../output/obj/PRELOADER_OBJ/obj/sec_rom_info.o
 .text          0x00000000        0x0 ../../output/obj/PRELOADER_OBJ/obj/sec_secroimg.o
 .data          0x00000000        0x0 ../../output/obj/PRELOADER_OBJ/obj/sec_secroimg.o
 .bss           0x00000000        0x0 ../../output/obj/PRELOADER_OBJ/obj/sec_secroimg.o
 .note.GNU-stack
                0x00000000        0x0 ../../output/obj/PRELOADER_OBJ/obj/sec_secroimg.o
 .text          0x00000000        0x0 ../../output/obj/PRELOADER_OBJ/obj/sec_util.o
 .data          0x00000000        0x0 ../../output/obj/PRELOADER_OBJ/obj/sec_util.o
 .bss           0x00000000        0x0 ../../output/obj/PRELOADER_OBJ/obj/sec_util.o
 .text.sec_set_usb_handshake_status
                0x00000000        0xc ../../output/obj/PRELOADER_OBJ/obj/sec_util.o
 .text.sec_util_force_entering_fastboot_mode
                0x00000000       0x3c ../../output/obj/PRELOADER_OBJ/obj/sec_util.o
 .bss.bUsbHandshakeSuccess
                0x00000000        0x1 ../../output/obj/PRELOADER_OBJ/obj/sec_util.o
 .note.GNU-stack
                0x00000000        0x0 ../../output/obj/PRELOADER_OBJ/obj/sec_util.o
 .text          0x00000000        0x0 ../../output/obj/PRELOADER_OBJ/obj/stdlib.o
 .data          0x00000000        0x0 ../../output/obj/PRELOADER_OBJ/obj/stdlib.o
 .bss           0x00000000        0x0 ../../output/obj/PRELOADER_OBJ/obj/stdlib.o
 .text.strchr   0x00000000       0x14 ../../output/obj/PRELOADER_OBJ/obj/stdlib.o
 .text.atoi     0x00000000       0x60 ../../output/obj/PRELOADER_OBJ/obj/stdlib.o
 .text.longjmperror
                0x00000000       0x18 ../../output/obj/PRELOADER_OBJ/obj/stdlib.o
 .rodata.digits.4066
                0x00000000        0xb ../../output/obj/PRELOADER_OBJ/obj/stdlib.o
 .rodata.str1.1
                0x00000000        0xb ../../output/obj/PRELOADER_OBJ/obj/stdlib.o
 .note.GNU-stack
                0x00000000        0x0 ../../output/obj/PRELOADER_OBJ/obj/stdlib.o
 .text          0x00000000        0x0 ../../output/obj/PRELOADER_OBJ/obj/string.o
 .data          0x00000000        0x0 ../../output/obj/PRELOADER_OBJ/obj/string.o
 .bss           0x00000000        0x0 ../../output/obj/PRELOADER_OBJ/obj/string.o
 .note.GNU-stack
                0x00000000        0x0 ../../output/obj/PRELOADER_OBJ/obj/string.o
 .text          0x00000000        0x0 ../../output/obj/PRELOADER_OBJ/obj/uart.o
 .data          0x00000000        0x0 ../../output/obj/PRELOADER_OBJ/obj/uart.o
 .bss           0x00000000        0x0 ../../output/obj/PRELOADER_OBJ/obj/uart.o
 .text.serial_nonblock_getc
                0x00000000       0x18 ../../output/obj/PRELOADER_OBJ/obj/uart.o
 .note.GNU-stack
                0x00000000        0x0 ../../output/obj/PRELOADER_OBJ/obj/uart.o
 .text          0x00000000        0x0 /xspace/OrangePi/MTK/SourceCode/OrangePi_3G-IOT/external/mediatek/platform/mt6572/preloader/src/SecLib.a(seclib_boot.o)
 .data          0x00000000        0x0 /xspace/OrangePi/MTK/SourceCode/OrangePi_3G-IOT/external/mediatek/platform/mt6572/preloader/src/SecLib.a(seclib_boot.o)
 .bss           0x00000000        0x0 /xspace/OrangePi/MTK/SourceCode/OrangePi_3G-IOT/external/mediatek/platform/mt6572/preloader/src/SecLib.a(seclib_boot.o)
 .text.seclib_image_info_update
                0x00000000        0x8 /xspace/OrangePi/MTK/SourceCode/OrangePi_3G-IOT/external/mediatek/platform/mt6572/preloader/src/SecLib.a(seclib_boot.o)
 .text.seclib_image_info_add
                0x00000000        0x8 /xspace/OrangePi/MTK/SourceCode/OrangePi_3G-IOT/external/mediatek/platform/mt6572/preloader/src/SecLib.a(seclib_boot.o)
 .note.GNU-stack
                0x00000000        0x0 /xspace/OrangePi/MTK/SourceCode/OrangePi_3G-IOT/external/mediatek/platform/mt6572/preloader/src/SecLib.a(seclib_boot.o)
 .text          0x00000000        0x0 /xspace/OrangePi/MTK/SourceCode/OrangePi_3G-IOT/external/mediatek/platform/mt6572/preloader/src/SecLib.a(seclib_dl.o)
 .data          0x00000000        0x0 /xspace/OrangePi/MTK/SourceCode/OrangePi_3G-IOT/external/mediatek/platform/mt6572/preloader/src/SecLib.a(seclib_dl.o)
 .bss           0x00000000        0x0 /xspace/OrangePi/MTK/SourceCode/OrangePi_3G-IOT/external/mediatek/platform/mt6572/preloader/src/SecLib.a(seclib_dl.o)
 .note.GNU-stack
                0x00000000        0x0 /xspace/OrangePi/MTK/SourceCode/OrangePi_3G-IOT/external/mediatek/platform/mt6572/preloader/src/SecLib.a(seclib_dl.o)
 .text          0x00000000        0x0 /xspace/OrangePi/MTK/SourceCode/OrangePi_3G-IOT/external/mediatek/platform/mt6572/preloader/src/SecLib.a(seclib_img_hash.o)
 .data          0x00000000        0x0 /xspace/OrangePi/MTK/SourceCode/OrangePi_3G-IOT/external/mediatek/platform/mt6572/preloader/src/SecLib.a(seclib_img_hash.o)
 .bss           0x00000000        0x0 /xspace/OrangePi/MTK/SourceCode/OrangePi_3G-IOT/external/mediatek/platform/mt6572/preloader/src/SecLib.a(seclib_img_hash.o)
 .note.GNU-stack
                0x00000000        0x0 /xspace/OrangePi/MTK/SourceCode/OrangePi_3G-IOT/external/mediatek/platform/mt6572/preloader/src/SecLib.a(seclib_img_hash.o)
 .text          0x00000000        0x0 /xspace/OrangePi/MTK/SourceCode/OrangePi_3G-IOT/external/mediatek/platform/mt6572/preloader/src/SecLib.a(seclib_img_verify.o)
 .data          0x00000000        0x0 /xspace/OrangePi/MTK/SourceCode/OrangePi_3G-IOT/external/mediatek/platform/mt6572/preloader/src/SecLib.a(seclib_img_verify.o)
 .bss           0x00000000        0x0 /xspace/OrangePi/MTK/SourceCode/OrangePi_3G-IOT/external/mediatek/platform/mt6572/preloader/src/SecLib.a(seclib_img_verify.o)
 .note.GNU-stack
                0x00000000        0x0 /xspace/OrangePi/MTK/SourceCode/OrangePi_3G-IOT/external/mediatek/platform/mt6572/preloader/src/SecLib.a(seclib_img_verify.o)
 .text          0x00000000        0x0 /xspace/OrangePi/MTK/SourceCode/OrangePi_3G-IOT/external/mediatek/platform/mt6572/preloader/src/SecLib.a(seclib_key.o)
 .data          0x00000000        0x0 /xspace/OrangePi/MTK/SourceCode/OrangePi_3G-IOT/external/mediatek/platform/mt6572/preloader/src/SecLib.a(seclib_key.o)
 .bss           0x00000000        0x0 /xspace/OrangePi/MTK/SourceCode/OrangePi_3G-IOT/external/mediatek/platform/mt6572/preloader/src/SecLib.a(seclib_key.o)
 .note.GNU-stack
                0x00000000        0x0 /xspace/OrangePi/MTK/SourceCode/OrangePi_3G-IOT/external/mediatek/platform/mt6572/preloader/src/SecLib.a(seclib_key.o)
 .text          0x00000000        0x0 /xspace/OrangePi/MTK/SourceCode/OrangePi_3G-IOT/external/mediatek/platform/mt6572/preloader/src/SecLib.a(seclib.o)
 .data          0x00000000        0x0 /xspace/OrangePi/MTK/SourceCode/OrangePi_3G-IOT/external/mediatek/platform/mt6572/preloader/src/SecLib.a(seclib.o)
 .bss           0x00000000        0x0 /xspace/OrangePi/MTK/SourceCode/OrangePi_3G-IOT/external/mediatek/platform/mt6572/preloader/src/SecLib.a(seclib.o)
 .note.GNU-stack
                0x00000000        0x0 /xspace/OrangePi/MTK/SourceCode/OrangePi_3G-IOT/external/mediatek/platform/mt6572/preloader/src/SecLib.a(seclib.o)
 .text          0x00000000        0x0 /xspace/OrangePi/MTK/SourceCode/OrangePi_3G-IOT/external/mediatek/platform/mt6572/preloader/src/SecLib.a(seclib_secroimg.o)
 .data          0x00000000        0x0 /xspace/OrangePi/MTK/SourceCode/OrangePi_3G-IOT/external/mediatek/platform/mt6572/preloader/src/SecLib.a(seclib_secroimg.o)
 .bss           0x00000000        0x0 /xspace/OrangePi/MTK/SourceCode/OrangePi_3G-IOT/external/mediatek/platform/mt6572/preloader/src/SecLib.a(seclib_secroimg.o)
 .note.GNU-stack
                0x00000000        0x0 /xspace/OrangePi/MTK/SourceCode/OrangePi_3G-IOT/external/mediatek/platform/mt6572/preloader/src/SecLib.a(seclib_secroimg.o)
 .text          0x00000000        0x0 /xspace/OrangePi/MTK/SourceCode/OrangePi_3G-IOT/external/mediatek/platform/mt6572/preloader/src/SecLib.a(seclib_sej_export.o)
 .data          0x00000000        0x0 /xspace/OrangePi/MTK/SourceCode/OrangePi_3G-IOT/external/mediatek/platform/mt6572/preloader/src/SecLib.a(seclib_sej_export.o)
 .bss           0x00000000        0x0 /xspace/OrangePi/MTK/SourceCode/OrangePi_3G-IOT/external/mediatek/platform/mt6572/preloader/src/SecLib.a(seclib_sej_export.o)
 .text.sp_sej_deinit
                0x00000000        0x4 /xspace/OrangePi/MTK/SourceCode/OrangePi_3G-IOT/external/mediatek/platform/mt6572/preloader/src/SecLib.a(seclib_sej_export.o)
 .text.sp_check_platform
                0x00000000        0x4 /xspace/OrangePi/MTK/SourceCode/OrangePi_3G-IOT/external/mediatek/platform/mt6572/preloader/src/SecLib.a(seclib_sej_export.o)
 .note.GNU-stack
                0x00000000        0x0 /xspace/OrangePi/MTK/SourceCode/OrangePi_3G-IOT/external/mediatek/platform/mt6572/preloader/src/SecLib.a(seclib_sej_export.o)
 .text          0x00000000        0x0 /xspace/OrangePi/MTK/SourceCode/OrangePi_3G-IOT/external/mediatek/platform/mt6572/preloader/src/SecLib.a(seclib_util.o)
 .data          0x00000000        0x0 /xspace/OrangePi/MTK/SourceCode/OrangePi_3G-IOT/external/mediatek/platform/mt6572/preloader/src/SecLib.a(seclib_util.o)
 .bss           0x00000000        0x0 /xspace/OrangePi/MTK/SourceCode/OrangePi_3G-IOT/external/mediatek/platform/mt6572/preloader/src/SecLib.a(seclib_util.o)
 .note.GNU-stack
                0x00000000        0x0 /xspace/OrangePi/MTK/SourceCode/OrangePi_3G-IOT/external/mediatek/platform/mt6572/preloader/src/SecLib.a(seclib_util.o)
 .text          0x00000000        0x0 /xspace/OrangePi/MTK/SourceCode/OrangePi_3G-IOT/external/mediatek/platform/mt6572/preloader/src/SecLib.a(weak_auth.o)
 .data          0x00000000        0x0 /xspace/OrangePi/MTK/SourceCode/OrangePi_3G-IOT/external/mediatek/platform/mt6572/preloader/src/SecLib.a(weak_auth.o)
 .bss           0x00000000        0x0 /xspace/OrangePi/MTK/SourceCode/OrangePi_3G-IOT/external/mediatek/platform/mt6572/preloader/src/SecLib.a(weak_auth.o)
 .text.seclib_rsa_init
                0x00000000        0x8 /xspace/OrangePi/MTK/SourceCode/OrangePi_3G-IOT/external/mediatek/platform/mt6572/preloader/src/SecLib.a(weak_auth.o)
 .note.GNU-stack
                0x00000000        0x0 /xspace/OrangePi/MTK/SourceCode/OrangePi_3G-IOT/external/mediatek/platform/mt6572/preloader/src/SecLib.a(weak_auth.o)
 .text          0x00000000        0x0 /xspace/OrangePi/MTK/SourceCode/OrangePi_3G-IOT/external/mediatek/platform/mt6572/preloader/src/SecLib.a(seccfg_crypto.o)
 .data          0x00000000        0x0 /xspace/OrangePi/MTK/SourceCode/OrangePi_3G-IOT/external/mediatek/platform/mt6572/preloader/src/SecLib.a(seccfg_crypto.o)
 .bss           0x00000000        0x0 /xspace/OrangePi/MTK/SourceCode/OrangePi_3G-IOT/external/mediatek/platform/mt6572/preloader/src/SecLib.a(seccfg_crypto.o)
 .note.GNU-stack
                0x00000000        0x0 /xspace/OrangePi/MTK/SourceCode/OrangePi_3G-IOT/external/mediatek/platform/mt6572/preloader/src/SecLib.a(seccfg_crypto.o)
 .text          0x00000000        0x0 /xspace/OrangePi/MTK/SourceCode/OrangePi_3G-IOT/external/mediatek/platform/mt6572/preloader/src/security/auth/DaVerifyLib.a(auth.o)
 .data          0x00000000        0x0 /xspace/OrangePi/MTK/SourceCode/OrangePi_3G-IOT/external/mediatek/platform/mt6572/preloader/src/security/auth/DaVerifyLib.a(auth.o)
 .bss           0x00000000        0x0 /xspace/OrangePi/MTK/SourceCode/OrangePi_3G-IOT/external/mediatek/platform/mt6572/preloader/src/security/auth/DaVerifyLib.a(auth.o)
 .note.GNU-stack
                0x00000000        0x0 /xspace/OrangePi/MTK/SourceCode/OrangePi_3G-IOT/external/mediatek/platform/mt6572/preloader/src/security/auth/DaVerifyLib.a(auth.o)
 .text          0x00000000        0x0 /xspace/OrangePi/MTK/SourceCode/OrangePi_3G-IOT/external/mediatek/platform/mt6572/preloader/src/security/auth/DaVerifyLib.a(bgn_io.o)
 .data          0x00000000        0x0 /xspace/OrangePi/MTK/SourceCode/OrangePi_3G-IOT/external/mediatek/platform/mt6572/preloader/src/security/auth/DaVerifyLib.a(bgn_io.o)
 .bss           0x00000000        0x0 /xspace/OrangePi/MTK/SourceCode/OrangePi_3G-IOT/external/mediatek/platform/mt6572/preloader/src/security/auth/DaVerifyLib.a(bgn_io.o)
 .note.GNU-stack
                0x00000000        0x0 /xspace/OrangePi/MTK/SourceCode/OrangePi_3G-IOT/external/mediatek/platform/mt6572/preloader/src/security/auth/DaVerifyLib.a(bgn_io.o)
 .text          0x00000000        0x0 /xspace/OrangePi/MTK/SourceCode/OrangePi_3G-IOT/external/mediatek/platform/mt6572/preloader/src/security/auth/DaVerifyLib.a(bgn_util.o)
 .data          0x00000000        0x0 /xspace/OrangePi/MTK/SourceCode/OrangePi_3G-IOT/external/mediatek/platform/mt6572/preloader/src/security/auth/DaVerifyLib.a(bgn_util.o)
 .bss           0x00000000        0x0 /xspace/OrangePi/MTK/SourceCode/OrangePi_3G-IOT/external/mediatek/platform/mt6572/preloader/src/security/auth/DaVerifyLib.a(bgn_util.o)
 .text.bgn_swap
                0x00000000       0x48 /xspace/OrangePi/MTK/SourceCode/OrangePi_3G-IOT/external/mediatek/platform/mt6572/preloader/src/security/auth/DaVerifyLib.a(bgn_util.o)
 .text.bgn_lsb  0x00000000       0x54 /xspace/OrangePi/MTK/SourceCode/OrangePi_3G-IOT/external/mediatek/platform/mt6572/preloader/src/security/auth/DaVerifyLib.a(bgn_util.o)
 .text.bgn_div_int
                0x00000000       0x40 /xspace/OrangePi/MTK/SourceCode/OrangePi_3G-IOT/external/mediatek/platform/mt6572/preloader/src/security/auth/DaVerifyLib.a(bgn_util.o)
 .text.bgn_mod_int
                0x00000000       0xc8 /xspace/OrangePi/MTK/SourceCode/OrangePi_3G-IOT/external/mediatek/platform/mt6572/preloader/src/security/auth/DaVerifyLib.a(bgn_util.o)
 .note.GNU-stack
                0x00000000        0x0 /xspace/OrangePi/MTK/SourceCode/OrangePi_3G-IOT/external/mediatek/platform/mt6572/preloader/src/security/auth/DaVerifyLib.a(bgn_util.o)
 .text          0x00000000        0x0 /xspace/OrangePi/MTK/SourceCode/OrangePi_3G-IOT/external/mediatek/platform/mt6572/preloader/src/security/auth/DaVerifyLib.a(rsa.o)
 .data          0x00000000        0x0 /xspace/OrangePi/MTK/SourceCode/OrangePi_3G-IOT/external/mediatek/platform/mt6572/preloader/src/security/auth/DaVerifyLib.a(rsa.o)
 .bss           0x00000000        0x0 /xspace/OrangePi/MTK/SourceCode/OrangePi_3G-IOT/external/mediatek/platform/mt6572/preloader/src/security/auth/DaVerifyLib.a(rsa.o)
 .text.rsa_init
                0x00000000       0x38 /xspace/OrangePi/MTK/SourceCode/OrangePi_3G-IOT/external/mediatek/platform/mt6572/preloader/src/security/auth/DaVerifyLib.a(rsa.o)
 .text.rsa_free
                0x00000000       0x3c /xspace/OrangePi/MTK/SourceCode/OrangePi_3G-IOT/external/mediatek/platform/mt6572/preloader/src/security/auth/DaVerifyLib.a(rsa.o)
 .bss.rsa_ci    0x00000000       0x80 /xspace/OrangePi/MTK/SourceCode/OrangePi_3G-IOT/external/mediatek/platform/mt6572/preloader/src/security/auth/DaVerifyLib.a(rsa.o)
 .note.GNU-stack
                0x00000000        0x0 /xspace/OrangePi/MTK/SourceCode/OrangePi_3G-IOT/external/mediatek/platform/mt6572/preloader/src/security/auth/DaVerifyLib.a(rsa.o)
 .text          0x00000000        0x0 /xspace/OrangePi/MTK/SourceCode/OrangePi_3G-IOT/external/mediatek/platform/mt6572/preloader/src/security/auth/DaVerifyLib.a(sha1.o)
 .data          0x00000000        0x0 /xspace/OrangePi/MTK/SourceCode/OrangePi_3G-IOT/external/mediatek/platform/mt6572/preloader/src/security/auth/DaVerifyLib.a(sha1.o)
 .bss           0x00000000        0x0 /xspace/OrangePi/MTK/SourceCode/OrangePi_3G-IOT/external/mediatek/platform/mt6572/preloader/src/security/auth/DaVerifyLib.a(sha1.o)
 .text.cal_S    0x00000000        0xc /xspace/OrangePi/MTK/SourceCode/OrangePi_3G-IOT/external/mediatek/platform/mt6572/preloader/src/security/auth/DaVerifyLib.a(sha1.o)
 .text.cal_A2   0x00000000        0x8 /xspace/OrangePi/MTK/SourceCode/OrangePi_3G-IOT/external/mediatek/platform/mt6572/preloader/src/security/auth/DaVerifyLib.a(sha1.o)
 .note.GNU-stack
                0x00000000        0x0 /xspace/OrangePi/MTK/SourceCode/OrangePi_3G-IOT/external/mediatek/platform/mt6572/preloader/src/security/auth/DaVerifyLib.a(sha1.o)
 .text          0x00000000        0x0 /xspace/OrangePi/MTK/SourceCode/OrangePi_3G-IOT/external/mediatek/platform/mt6572/preloader/src/security/auth/DaVerifyLib.a(stdlib.o)
 .data          0x00000000        0x0 /xspace/OrangePi/MTK/SourceCode/OrangePi_3G-IOT/external/mediatek/platform/mt6572/preloader/src/security/auth/DaVerifyLib.a(stdlib.o)
 .bss           0x00000000        0x0 /xspace/OrangePi/MTK/SourceCode/OrangePi_3G-IOT/external/mediatek/platform/mt6572/preloader/src/security/auth/DaVerifyLib.a(stdlib.o)
 .data.heap_start_addr
                0x00000000        0x4 /xspace/OrangePi/MTK/SourceCode/OrangePi_3G-IOT/external/mediatek/platform/mt6572/preloader/src/security/auth/DaVerifyLib.a(stdlib.o)
 .note.GNU-stack
                0x00000000        0x0 /xspace/OrangePi/MTK/SourceCode/OrangePi_3G-IOT/external/mediatek/platform/mt6572/preloader/src/security/auth/DaVerifyLib.a(stdlib.o)
 .text          0x00000000        0x0 /xspace/OrangePi/MTK/SourceCode/OrangePi_3G-IOT/external/mediatek/platform/mt6572/preloader/src/security/auth/DaVerifyLib.a(bgn_core.o)
 .data          0x00000000        0x0 /xspace/OrangePi/MTK/SourceCode/OrangePi_3G-IOT/external/mediatek/platform/mt6572/preloader/src/security/auth/DaVerifyLib.a(bgn_core.o)
 .bss           0x00000000        0x0 /xspace/OrangePi/MTK/SourceCode/OrangePi_3G-IOT/external/mediatek/platform/mt6572/preloader/src/security/auth/DaVerifyLib.a(bgn_core.o)
 .note.GNU-stack
                0x00000000        0x0 /xspace/OrangePi/MTK/SourceCode/OrangePi_3G-IOT/external/mediatek/platform/mt6572/preloader/src/security/auth/DaVerifyLib.a(bgn_core.o)
 .text          0x00000000        0x0 /xspace/OrangePi/MTK/SourceCode/OrangePi_3G-IOT/external/mediatek/platform/mt6572/preloader/src/security/auth/DaVerifyLib.a(montg.o)
 .data          0x00000000        0x0 /xspace/OrangePi/MTK/SourceCode/OrangePi_3G-IOT/external/mediatek/platform/mt6572/preloader/src/security/auth/DaVerifyLib.a(montg.o)
 .bss           0x00000000        0x0 /xspace/OrangePi/MTK/SourceCode/OrangePi_3G-IOT/external/mediatek/platform/mt6572/preloader/src/security/auth/DaVerifyLib.a(montg.o)
 .note.GNU-stack
                0x00000000        0x0 /xspace/OrangePi/MTK/SourceCode/OrangePi_3G-IOT/external/mediatek/platform/mt6572/preloader/src/security/auth/DaVerifyLib.a(montg.o)
 .text          0x00000000        0x0 /xspace/OrangePi/MTK/SourceCode/OrangePi_3G-IOT/external/mediatek/platform/mt6572/preloader/src/SecPlat.a(efuse.o)
 .data          0x00000000        0x0 /xspace/OrangePi/MTK/SourceCode/OrangePi_3G-IOT/external/mediatek/platform/mt6572/preloader/src/SecPlat.a(efuse.o)
 .bss           0x00000000        0x0 /xspace/OrangePi/MTK/SourceCode/OrangePi_3G-IOT/external/mediatek/platform/mt6572/preloader/src/SecPlat.a(efuse.o)
 .note.GNU-stack
                0x00000000        0x0 /xspace/OrangePi/MTK/SourceCode/OrangePi_3G-IOT/external/mediatek/platform/mt6572/preloader/src/SecPlat.a(efuse.o)
 .text          0x00000000        0x0 /xspace/OrangePi/MTK/SourceCode/OrangePi_3G-IOT/external/mediatek/platform/mt6572/preloader/src/SecPlat.a(meta.o)
 .data          0x00000000        0x0 /xspace/OrangePi/MTK/SourceCode/OrangePi_3G-IOT/external/mediatek/platform/mt6572/preloader/src/SecPlat.a(meta.o)
 .bss           0x00000000        0x0 /xspace/OrangePi/MTK/SourceCode/OrangePi_3G-IOT/external/mediatek/platform/mt6572/preloader/src/SecPlat.a(meta.o)
 .note.GNU-stack
                0x00000000        0x0 /xspace/OrangePi/MTK/SourceCode/OrangePi_3G-IOT/external/mediatek/platform/mt6572/preloader/src/SecPlat.a(meta.o)
 .text          0x00000000        0x0 /xspace/OrangePi/MTK/SourceCode/OrangePi_3G-IOT/external/mediatek/platform/mt6572/preloader/src/SecPlat.a(seclib_region.o)
 .data          0x00000000        0x0 /xspace/OrangePi/MTK/SourceCode/OrangePi_3G-IOT/external/mediatek/platform/mt6572/preloader/src/SecPlat.a(seclib_region.o)
 .bss           0x00000000        0x0 /xspace/OrangePi/MTK/SourceCode/OrangePi_3G-IOT/external/mediatek/platform/mt6572/preloader/src/SecPlat.a(seclib_region.o)
 .note.GNU-stack
                0x00000000        0x0 /xspace/OrangePi/MTK/SourceCode/OrangePi_3G-IOT/external/mediatek/platform/mt6572/preloader/src/SecPlat.a(seclib_region.o)
 .text          0x00000000        0x0 /xspace/OrangePi/MTK/SourceCode/OrangePi_3G-IOT/external/mediatek/platform/mt6572/preloader/src/SecPlat.a(sej_hk.o)
 .data          0x00000000        0x0 /xspace/OrangePi/MTK/SourceCode/OrangePi_3G-IOT/external/mediatek/platform/mt6572/preloader/src/SecPlat.a(sej_hk.o)
 .bss           0x00000000        0x0 /xspace/OrangePi/MTK/SourceCode/OrangePi_3G-IOT/external/mediatek/platform/mt6572/preloader/src/SecPlat.a(sej_hk.o)
 .rodata.g_AC_BOOTROM_SWOTP
                0x00000000       0x20 /xspace/OrangePi/MTK/SourceCode/OrangePi_3G-IOT/external/mediatek/platform/mt6572/preloader/src/SecPlat.a(sej_hk.o)
 .note.GNU-stack
                0x00000000        0x0 /xspace/OrangePi/MTK/SourceCode/OrangePi_3G-IOT/external/mediatek/platform/mt6572/preloader/src/SecPlat.a(sej_hk.o)
 .text          0x00000000        0x0 /xspace/OrangePi/MTK/SourceCode/OrangePi_3G-IOT/external/mediatek/platform/mt6572/preloader/src/SecPlat.a(sej_sk.o)
 .data          0x00000000        0x0 /xspace/OrangePi/MTK/SourceCode/OrangePi_3G-IOT/external/mediatek/platform/mt6572/preloader/src/SecPlat.a(sej_sk.o)
 .bss           0x00000000        0x0 /xspace/OrangePi/MTK/SourceCode/OrangePi_3G-IOT/external/mediatek/platform/mt6572/preloader/src/SecPlat.a(sej_sk.o)
 .note.GNU-stack
                0x00000000        0x0 /xspace/OrangePi/MTK/SourceCode/OrangePi_3G-IOT/external/mediatek/platform/mt6572/preloader/src/SecPlat.a(sej_sk.o)

Memory map

 ** file header
                0x01fff000       0x34
 ** segment headers
                0x01fff034       0xe0

.bss            0x02000000     0x41d8
 .bss.blkdev_list
                0x02000000        0x4 ../../output/obj/PRELOADER_OBJ/obj/blkdev.o
 .bss.system_block_count
                0x02000004        0x4 ../../output/obj/PRELOADER_OBJ/obj/bmt.o
 .bss.nand_chip_bmt
                0x02000008        0x4 ../../output/obj/PRELOADER_OBJ/obj/bmt.o
 .bss.page_per_block
                0x0200000c        0x4 ../../output/obj/PRELOADER_OBJ/obj/bmt.o
 .bss.total_block_count
                0x02000010        0x4 ../../output/obj/PRELOADER_OBJ/obj/bmt.o
 .bss.bmt_block_index
                0x02000014        0x4 ../../output/obj/PRELOADER_OBJ/obj/bmt.o
 .bss.bmt_block_count
                0x02000018        0x4 ../../output/obj/PRELOADER_OBJ/obj/bmt.o
 .bss.pool_erased
                0x0200001c        0x1 ../../output/obj/PRELOADER_OBJ/obj/bmt.o
 .bss.bmt       0x0200001e      0x204 ../../output/obj/PRELOADER_OBJ/obj/bmt.o
 .bss.g_usb_input_buf
                0x02000222      0x400 ../../output/obj/PRELOADER_OBJ/obj/circbuf.o
 .bss.g_usb_output_buf
                0x02000622      0x400 ../../output/obj/PRELOADER_OBJ/obj/circbuf.o
 .bss.g_da_verified
                0x02000a22        0x1 ../../output/obj/PRELOADER_OBJ/obj/download.o
                0x02000a22                g_da_verified
 .bss.g_I2C_CmdBuf
                0x02000a23       0x20 ../../output/obj/PRELOADER_OBJ/obj/download.o
 .bss.dlcomport
                0x02000a44        0x4 ../../output/obj/PRELOADER_OBJ/obj/download.o
 .bss.g_I2C_DataBuf
                0x02000a48       0x20 ../../output/obj/PRELOADER_OBJ/obj/download.o
 .bss.g_meta_ready_start_time
                0x02000a68        0x4 ../../output/obj/PRELOADER_OBJ/obj/handshake_uart.o
 .bss.id        0x02000a6c       0x16 ../../output/obj/PRELOADER_OBJ/obj/mt_emi.o
 .bss.board_dram_info
                0x02000a84       0x10 ../../output/obj/PRELOADER_OBJ/obj/mt_emi.o
                0x02000a84                board_dram_info
 .bss.found.4230
                0x02000a94        0x4 ../../output/obj/PRELOADER_OBJ/obj/mt_emi.o
 .bss.fw_id_len
                0x02000a98        0x4 ../../output/obj/PRELOADER_OBJ/obj/mt_emi.o
 .bss.g_rtc_2sec_stat
                0x02000a9c        0x1 ../../output/obj/PRELOADER_OBJ/obj/mt_rtc.o
 .bss.save_stat.4384
                0x02000a9d        0x1 ../../output/obj/PRELOADER_OBJ/obj/mt_rtc.o
 .bss.recovery_flag
                0x02000a9e        0x1 ../../output/obj/PRELOADER_OBJ/obj/mt_rtc.o
 .bss.set_address
                0x02000aa0        0x4 ../../output/obj/PRELOADER_OBJ/obj/mt_usbd.o
                0x02000aa0                set_address
 .bss.ep0_urb   0x02000aa4        0x4 ../../output/obj/PRELOADER_OBJ/obj/mt_usbd.o
 .bss.g_usb_port_state
                0x02000aa8        0x4 ../../output/obj/PRELOADER_OBJ/obj/mt_usbd.o
                0x02000aa8                g_usb_port_state
 .bss.udc_device
                0x02000aac        0x4 ../../output/obj/PRELOADER_OBJ/obj/mt_usbd.o
 .bss.ep0_state
                0x02000ab0        0x4 ../../output/obj/PRELOADER_OBJ/obj/mt_usbd.o
                0x02000ab0                ep0_state
 .bss.g_usbphy_ok
                0x02000ab4        0x4 ../../output/obj/PRELOADER_OBJ/obj/mt_usbd.o
                0x02000ab4                g_usbphy_ok
 .bss.mt6573_rx_urb
                0x02000ab8      0x41c ../../output/obj/PRELOADER_OBJ/obj/mt_usbtty.o
                0x02000ab8                mt6573_rx_urb
 .bss.mt_usb_config
                0x02000ed4        0xc ../../output/obj/PRELOADER_OBJ/obj/mt_usbtty.o
 .bss.mt6573_ep0_urb
                0x02000ee0      0x41c ../../output/obj/PRELOADER_OBJ/obj/mt_usbtty.o
                0x02000ee0                mt6573_ep0_urb
 .bss.mt_usb_comm_alternate_interface
                0x020012fc       0x1c ../../output/obj/PRELOADER_OBJ/obj/mt_usbtty.o
 .bss.mt_usb_ep
                0x02001318       0x70 ../../output/obj/PRELOADER_OBJ/obj/mt_usbtty.o
 .bss.usb_configured
                0x02001388        0x4 ../../output/obj/PRELOADER_OBJ/obj/mt_usbtty.o
                0x02001388                usb_configured
 .bss.usb_string_table
                0x0200138c        0x4 ../../output/obj/PRELOADER_OBJ/obj/mt_usbtty.o
                0x0200138c                usb_string_table
 .bss.usb_output_buffer
                0x02001390       0x18 ../../output/obj/PRELOADER_OBJ/obj/mt_usbtty.o
 .bss.commInterface
                0x020013a8       0x40 ../../output/obj/PRELOADER_OBJ/obj/mt_usbtty.o
 .bss.dataInterface
                0x020013e8       0x2e ../../output/obj/PRELOADER_OBJ/obj/mt_usbtty.o
 .bss.mt_usb_comm_interface
                0x02001418        0x8 ../../output/obj/PRELOADER_OBJ/obj/mt_usbtty.o
 .bss.mt6573_tx_urb
                0x02001420      0x41c ../../output/obj/PRELOADER_OBJ/obj/mt_usbtty.o
                0x02001420                mt6573_tx_urb
 .bss.usb_input_buffer
                0x0200183c       0x18 ../../output/obj/PRELOADER_OBJ/obj/mt_usbtty.o
 .bss.mt_usb_device
                0x02001854       0x28 ../../output/obj/PRELOADER_OBJ/obj/mt_usbtty.o
 .bss.mt_usb_data_alternate_interface
                0x0200187c       0x1c ../../output/obj/PRELOADER_OBJ/obj/mt_usbtty.o
 .bss.configuration
                0x02001898       0x34 ../../output/obj/PRELOADER_OBJ/obj/mt_usbtty.o
 .bss.product   0x020018cc       0x22 ../../output/obj/PRELOADER_OBJ/obj/mt_usbtty.o
 .bss.manufacturer
                0x020018ee       0x12 ../../output/obj/PRELOADER_OBJ/obj/mt_usbtty.o
 .bss.tool_exists
                0x02001900        0x4 ../../output/obj/PRELOADER_OBJ/obj/mt_usbtty.o
                0x02001900                tool_exists
 .bss.mt_usb_interface
                0x02001904        0x8 ../../output/obj/PRELOADER_OBJ/obj/mt_usbtty.o
 .bss.mt_usb_data_interface
                0x0200190c        0x8 ../../output/obj/PRELOADER_OBJ/obj/mt_usbtty.o
 .bss.nand_dev_id
                0x02001914        0x4 ../../output/obj/PRELOADER_OBJ/obj/mtk_nand.o
                0x02001914                nand_dev_id
 .bss.g_bInitDone
                0x02001918        0x1 ../../output/obj/PRELOADER_OBJ/obj/mtk_nand.o
 .bss.g_kCMD    0x0200191c       0x50 ../../output/obj/PRELOADER_OBJ/obj/mtk_nand.o
 .bss.nfi_buf   0x0200196c        0x4 ../../output/obj/PRELOADER_OBJ/obj/mtk_nand.o
 .bss.PAGE_SIZE
                0x02001970        0x4 ../../output/obj/PRELOADER_OBJ/obj/mtk_nand.o
                0x02001970                PAGE_SIZE
 .bss.ext_id2   0x02001974        0x1 ../../output/obj/PRELOADER_OBJ/obj/mtk_nand.o
                0x02001974                ext_id2
 .bss.BLOCK_SIZE
                0x02001978        0x4 ../../output/obj/PRELOADER_OBJ/obj/mtk_nand.o
                0x02001978                BLOCK_SIZE
 .bss.g_nand_bdev
                0x0200197c       0x28 ../../output/obj/PRELOADER_OBJ/obj/mtk_nand.o
 .bss.Bad_Block_Table_init.4754
                0x020019a4        0x1 ../../output/obj/PRELOADER_OBJ/obj/mtk_nand.o
 .bss.g_nand_chip
                0x020019a8       0x3c ../../output/obj/PRELOADER_OBJ/obj/mtk_nand.o
                0x020019a8                g_nand_chip
 .bss.g_nand_spare
                0x020019e4       0x80 ../../output/obj/PRELOADER_OBJ/obj/mtk_nand.o
                0x020019e4                g_nand_spare
 .bss.nand_maf_id
                0x02001a64        0x4 ../../output/obj/PRELOADER_OBJ/obj/mtk_nand.o
                0x02001a64                nand_maf_id
 .bss.devinfo   0x02001a68       0x3c ../../output/obj/PRELOADER_OBJ/obj/mtk_nand.o
 .bss.nand_oob  0x02001aa4        0x4 ../../output/obj/PRELOADER_OBJ/obj/mtk_nand.o
                0x02001aa4                nand_oob
 .bss.g_charger_in_flag
                0x02001aa8        0x4 ../../output/obj/PRELOADER_OBJ/obj/mtk_pmic_6323.o
                0x02001aa8                g_charger_in_flag
 .bss.g_ret     0x02001aac        0x4 ../../output/obj/PRELOADER_OBJ/obj/mtk_pmic_6323.o
                0x02001aac                g_ret
 .bss.g_first_check
                0x02001ab0        0x4 ../../output/obj/PRELOADER_OBJ/obj/mtk_pmic_6323.o
                0x02001ab0                g_first_check
 .bss.timestamp
                0x02001ab4        0x4 ../../output/obj/PRELOADER_OBJ/obj/mtk_timer.o
 .bss.lastinc   0x02001ab8        0x4 ../../output/obj/PRELOADER_OBJ/obj/mtk_timer.o
 .bss.status.4087
                0x02001abc        0x4 ../../output/obj/PRELOADER_OBJ/obj/mtk_wdt.o
 .bss.g_rgu_status
                0x02001ac0        0x4 ../../output/obj/PRELOADER_OBJ/obj/mtk_wdt.o
                0x02001ac0                g_rgu_status
 .bss.reboot_from
                0x02001ac4        0x4 ../../output/obj/PRELOADER_OBJ/obj/mtk_wdt.o
 .bss.rgu_mode  0x02001ac8        0x4 ../../output/obj/PRELOADER_OBJ/obj/mtk_wdt.o
 .bss.timeout   0x02001acc        0x4 ../../output/obj/PRELOADER_OBJ/obj/mtk_wdt.o
 .bss.total_size
                0x02001ad0        0x4 ../../output/obj/PRELOADER_OBJ/obj/partition_mt.o
 .bss.tempart   0x02001ad4       0x14 ../../output/obj/PRELOADER_OBJ/obj/partition_mt.o
 .bss.pi        0x02001ae8        0x4 ../../output/obj/PRELOADER_OBJ/obj/partition_mt.o
 .bss.new_part  0x02001aec      0xbe0 ../../output/obj/PRELOADER_OBJ/obj/partition_mt.o
 .bss.lastest_part
                0x020026cc      0xbe0 ../../output/obj/PRELOADER_OBJ/obj/partition_mt.o
 .bss.g_boot_time
                0x020032ac        0x4 ../../output/obj/PRELOADER_OBJ/obj/platform.o
                0x020032ac                g_boot_time
 .bss.g_boot_mode
                0x020032b0        0x4 ../../output/obj/PRELOADER_OBJ/obj/platform.o
                0x020032b0                g_boot_mode
 .bss.sys_stack
                0x020032b4      0xc00 ../../output/obj/PRELOADER_OBJ/obj/platform.o
                0x020032b4                sys_stack
 .bss.g_boot_reason
                0x02003eb4        0x4 ../../output/obj/PRELOADER_OBJ/obj/platform.o
                0x02003eb4                g_boot_reason
 .bss.kpoc_flag
                0x02003eb8        0x4 ../../output/obj/PRELOADER_OBJ/obj/platform.o
                0x02003eb8                kpoc_flag
 .bss.g_meta_com_type
                0x02003ebc        0x4 ../../output/obj/PRELOADER_OBJ/obj/platform.o
                0x02003ebc                g_meta_com_type
 .bss.g_meta_com_id
                0x02003ec0        0x4 ../../output/obj/PRELOADER_OBJ/obj/platform.o
                0x02003ec0                g_meta_com_id
 .bss.g_log_disable
                0x02003ec4        0x4 ../../output/obj/PRELOADER_OBJ/obj/print.o
 .bss.sec_cfg_info
                0x02003ec8        0x8 ../../output/obj/PRELOADER_OBJ/obj/sec.o
                0x02003ec8                sec_cfg_info
 .bss.g_SBC_PUBK
                0x02003ed0      0x200 ../../output/obj/PRELOADER_OBJ/obj/sec_key.o
                0x02003ed0                g_SBC_PUBK
 .bss.secroimg  0x020040d0        0x4 ../../output/obj/PRELOADER_OBJ/obj/sec_secroimg.o
                0x020040d0                secroimg
 .bss.bDumpPartInfo
                0x020040d4        0x1 ../../output/obj/PRELOADER_OBJ/obj/sec_util.o
                0x020040d4                bDumpPartInfo
 .bss.g_sha1_time
                0x020040d8        0x4 /xspace/OrangePi/MTK/SourceCode/OrangePi_3G-IOT/external/mediatek/platform/mt6572/preloader/src/SecLib.a(seclib_img_hash.o)
                0x020040d8                g_sha1_time
 .bss.img_buf   0x020040dc        0x4 /xspace/OrangePi/MTK/SourceCode/OrangePi_3G-IOT/external/mediatek/platform/mt6572/preloader/src/SecLib.a(seclib_img_verify.o)
 .bss.chunk_buf
                0x020040e0        0x4 /xspace/OrangePi/MTK/SourceCode/OrangePi_3G-IOT/external/mediatek/platform/mt6572/preloader/src/SecLib.a(seclib_img_verify.o)
 .bss.img_buf_current_allocated
                0x020040e4        0x4 /xspace/OrangePi/MTK/SourceCode/OrangePi_3G-IOT/external/mediatek/platform/mt6572/preloader/src/SecLib.a(seclib_img_verify.o)
 .bss.g_cust    0x020040e8        0x4 /xspace/OrangePi/MTK/SourceCode/OrangePi_3G-IOT/external/mediatek/platform/mt6572/preloader/src/SecLib.a(seclib.o)
                0x020040e8                g_cust
 .bss.g_sec_cfg
                0x020040ec        0x4 /xspace/OrangePi/MTK/SourceCode/OrangePi_3G-IOT/external/mediatek/platform/mt6572/preloader/src/SecLib.a(seclib.o)
                0x020040ec                g_sec_cfg
 .bss.g_cust_name
                0x020040f0       0x20 /xspace/OrangePi/MTK/SourceCode/OrangePi_3G-IOT/external/mediatek/platform/mt6572/preloader/src/SecLib.a(seclib.o)
                0x020040f0                g_cust_name
 .bss.rsa       0x02004110       0x5c /xspace/OrangePi/MTK/SourceCode/OrangePi_3G-IOT/external/mediatek/platform/mt6572/preloader/src/security/auth/DaVerifyLib.a(rsa.o)
                0x02004110                rsa
 .bss.sha1sum   0x0200416c       0x14 /xspace/OrangePi/MTK/SourceCode/OrangePi_3G-IOT/external/mediatek/platform/mt6572/preloader/src/security/auth/DaVerifyLib.a(sha1.o)
                0x0200416c                sha1sum
 .bss.heap_current_alloc
                0x02004180        0x4 /xspace/OrangePi/MTK/SourceCode/OrangePi_3G-IOT/external/mediatek/platform/mt6572/preloader/src/security/auth/DaVerifyLib.a(stdlib.o)
                0x02004180                heap_current_alloc
 .bss.sej_ctx   0x02004184       0x54 /xspace/OrangePi/MTK/SourceCode/OrangePi_3G-IOT/external/mediatek/platform/mt6572/preloader/src/SecPlat.a(sej_sk.o)

.start          0x02007500       0xfc
 .text.start    0xffffffffffffffff       0xf4 ../../output/obj/PRELOADER_OBJ/obj/init.o
                0x02007500                _start
                0x020075e4                jump

.rom_info       0x020076fc      0x3c0
 .data.rom_info
                0x020076fc      0x3c0 ../../output/obj/PRELOADER_OBJ/obj/sec_rom_info.o
                0x020076fc                g_ROM_INFO

.text           0x02007ac0      0x36c
 .text          0x02007ac0       0xc8 ../../output/obj/PRELOADER_OBJ/obj/eabi.o
                0x02007ac0                __udivsi3
                0x02007ac0                __aeabi_uidiv
                0x02007b58                __aeabi_uidivmod
                0x02007b70                __aeabi_idivmod
 .text          0x02007ba0      0x140 ../../output/obj/PRELOADER_OBJ/obj/eabi_idiv.o
                0x02007ba0                __divsi3
                0x02007ba0                __aeabi_idiv
 .text          0xffffffffffffffff      0x14c ../../output/obj/PRELOADER_OBJ/obj/eabi_uldivmod.o
                0x02007ce0                __aeabi_uldivmod

.text.blkdev_register
                0x02007e2c       0x28
 .text.blkdev_register
                0xffffffffffffffff       0x28 ../../output/obj/PRELOADER_OBJ/obj/blkdev.o
                0x02007e2d                blkdev_register

.text.blkdev_get
                0x02007e54       0x1c
 .text.blkdev_get
                0xffffffffffffffff       0x1c ../../output/obj/PRELOADER_OBJ/obj/blkdev.o
                0x02007e55                blkdev_get

.text.blkdev_read
                0x02007e70      0x1ae
 .text.blkdev_read
                0xffffffffffffffff      0x1ae ../../output/obj/PRELOADER_OBJ/obj/blkdev.o
                0x02007e71                blkdev_read

.text.blkdev_write
                0x0200801e      0x1d2
 .text.blkdev_write
                0xffffffffffffffff      0x1d2 ../../output/obj/PRELOADER_OBJ/obj/blkdev.o
                0x0200801f                blkdev_write

.text.is_block_mapped
                0x020081f0       0x34
 .text.is_block_mapped
                0xffffffffffffffff       0x34 ../../output/obj/PRELOADER_OBJ/obj/bmt.o

.text.dump_bmt_info
                0x02008224       0x44
 .text.dump_bmt_info
                0xffffffffffffffff       0x44 ../../output/obj/PRELOADER_OBJ/obj/bmt.o

.text.fill_nand_bmt_buffer
                0x02008268       0x94
 .text.fill_nand_bmt_buffer
                0xffffffffffffffff       0x94 ../../output/obj/PRELOADER_OBJ/obj/bmt.o

.text.nand_read_page_bmt
                0x020082fc        0x4
 .text.nand_read_page_bmt
                0xffffffffffffffff        0x4 ../../output/obj/PRELOADER_OBJ/obj/bmt.o
                0x020082fd                nand_read_page_bmt

.text.nand_block_bad_bmt
                0x02008300        0x4
 .text.nand_block_bad_bmt
                0xffffffffffffffff        0x4 ../../output/obj/PRELOADER_OBJ/obj/bmt.o
                0x02008301                nand_block_bad_bmt

.text.nand_erase_bmt
                0x02008304        0x4
 .text.nand_erase_bmt
                0xffffffffffffffff        0x4 ../../output/obj/PRELOADER_OBJ/obj/bmt.o
                0x02008305                nand_erase_bmt

.text.mark_block_bad_bmt
                0x02008308        0x8
 .text.mark_block_bad_bmt
                0xffffffffffffffff        0x8 ../../output/obj/PRELOADER_OBJ/obj/bmt.o
                0x02008309                mark_block_bad_bmt

.text.find_available_block
                0x02008310      0x194
 .text.find_available_block
                0xffffffffffffffff      0x194 ../../output/obj/PRELOADER_OBJ/obj/bmt.o

.text.load_bmt_data
                0x020084a4      0x2a0
 .text.load_bmt_data
                0xffffffffffffffff      0x2a0 ../../output/obj/PRELOADER_OBJ/obj/bmt.o

.text.nand_write_page_bmt
                0x02008744        0xa
 .text.nand_write_page_bmt
                0xffffffffffffffff        0xa ../../output/obj/PRELOADER_OBJ/obj/bmt.o
                0x02008745                nand_write_page_bmt

.text.write_bmt_to_flash
                0x02008750      0x12c
 .text.write_bmt_to_flash
                0xffffffffffffffff      0x12c ../../output/obj/PRELOADER_OBJ/obj/bmt.o

.text.set_bad_index_to_oob
                0x0200887c       0x14
 .text.set_bad_index_to_oob
                0xffffffffffffffff       0x14 ../../output/obj/PRELOADER_OBJ/obj/bmt.o
                0x0200887d                set_bad_index_to_oob

.text.reconstruct_bmt
                0x02008890      0x1a8
 .text.reconstruct_bmt
                0xffffffffffffffff      0x1a8 ../../output/obj/PRELOADER_OBJ/obj/bmt.o
                0x02008891                reconstruct_bmt

.text.init_bmt  0x02008a38       0xf0
 .text.init_bmt
                0xffffffffffffffff       0xf0 ../../output/obj/PRELOADER_OBJ/obj/bmt.o
                0x02008a39                init_bmt

.text.update_bmt
                0x02008b28      0x2fc
 .text.update_bmt
                0xffffffffffffffff      0x2fc ../../output/obj/PRELOADER_OBJ/obj/bmt.o
                0x02008b29                update_bmt

.text.get_mapping_block_index
                0x02008e24       0x64
 .text.get_mapping_block_index
                0xffffffffffffffff       0x64 ../../output/obj/PRELOADER_OBJ/obj/bmt.o
                0x02008e25                get_mapping_block_index

.text.buf_input_init
                0x02008e88       0x4c
 .text.buf_input_init
                0xffffffffffffffff       0x4c ../../output/obj/PRELOADER_OBJ/obj/circbuf.o
                0x02008e89                buf_input_init

.text.buf_output_init
                0x02008ed4       0x4c
 .text.buf_output_init
                0xffffffffffffffff       0x4c ../../output/obj/PRELOADER_OBJ/obj/circbuf.o
                0x02008ed5                buf_output_init

.text.buf_pop   0x02008f20       0x34
 .text.buf_pop  0xffffffffffffffff       0x34 ../../output/obj/PRELOADER_OBJ/obj/circbuf.o
                0x02008f21                buf_pop

.text.buf_push  0x02008f54       0x2a
 .text.buf_push
                0xffffffffffffffff       0x2a ../../output/obj/PRELOADER_OBJ/obj/circbuf.o
                0x02008f55                buf_push

.text.cust_part_init
                0x02008f7e        0x2
 .text.cust_part_init
                0xffffffffffffffff        0x2 ../../output/obj/PRELOADER_OBJ/obj/cust_part.o
                0x02008f7f                cust_part_init

.text.cust_part_tbl
                0x02008f80        0xc
 .text.cust_part_tbl
                0xffffffffffffffff        0xc ../../output/obj/PRELOADER_OBJ/obj/cust_part.o
                0x02008f81                cust_part_tbl

.text.uffs.part.0
                0x02008f8c       0x30
 .text.uffs.part.0
                0xffffffffffffffff       0x30 ../../output/obj/PRELOADER_OBJ/obj/device_apc.o

.text.device_APC_dom_setup
                0x02008fbc      0x110
 .text.device_APC_dom_setup
                0xffffffffffffffff      0x110 ../../output/obj/PRELOADER_OBJ/obj/device_apc.o
                0x02008fbd                device_APC_dom_setup

.text.__div0    0x020090cc       0x18
 .text.__div0   0xffffffffffffffff       0x18 ../../output/obj/PRELOADER_OBJ/obj/div0.o
                0x020090cd                __div0

.text.usbdl_put_byte
                0x020090e4       0x20
 .text.usbdl_put_byte
                0xffffffffffffffff       0x20 ../../output/obj/PRELOADER_OBJ/obj/download.o

.text.usbdl_put_word
                0x02009104       0x24
 .text.usbdl_put_word
                0xffffffffffffffff       0x24 ../../output/obj/PRELOADER_OBJ/obj/download.o

.text.usbdl_put_dword
                0x02009128       0x30
 .text.usbdl_put_dword
                0xffffffffffffffff       0x30 ../../output/obj/PRELOADER_OBJ/obj/download.o

.text.usbdl_get_byte
                0x02009158       0x18
 .text.usbdl_get_byte
                0xffffffffffffffff       0x18 ../../output/obj/PRELOADER_OBJ/obj/download.o

.text.usbdl_get_word
                0x02009170       0x2c
 .text.usbdl_get_word
                0xffffffffffffffff       0x2c ../../output/obj/PRELOADER_OBJ/obj/download.o

.text.usbdl_get_dword
                0x0200919c       0x3c
 .text.usbdl_get_dword
                0xffffffffffffffff       0x3c ../../output/obj/PRELOADER_OBJ/obj/download.o

.text.usbdl_read16
                0x020091d8       0x74
 .text.usbdl_read16
                0xffffffffffffffff       0x74 ../../output/obj/PRELOADER_OBJ/obj/download.o

.text.usbdl_write16
                0x0200924c       0x8a
 .text.usbdl_write16
                0xffffffffffffffff       0x8a ../../output/obj/PRELOADER_OBJ/obj/download.o

.text.usbdl_handler
                0x020092d8      0x638
 .text.usbdl_handler
                0xffffffffffffffff      0x638 ../../output/obj/PRELOADER_OBJ/obj/download.o
                0x020092d9                usbdl_handler

.text.mt_set_gpio_dir_chip
                0x02009910       0x48
 .text.mt_set_gpio_dir_chip
                0xffffffffffffffff       0x48 ../../output/obj/PRELOADER_OBJ/obj/gpio.o
                0x02009911                mt_set_gpio_dir_chip

.text.mt_set_gpio_pull_enable_chip
                0x02009958       0x50
 .text.mt_set_gpio_pull_enable_chip
                0xffffffffffffffff       0x50 ../../output/obj/PRELOADER_OBJ/obj/gpio.o
                0x02009959                mt_set_gpio_pull_enable_chip

.text.mt_set_gpio_pull_select_chip
                0x020099a8       0x50
 .text.mt_set_gpio_pull_select_chip
                0xffffffffffffffff       0x50 ../../output/obj/PRELOADER_OBJ/obj/gpio.o
                0x020099a9                mt_set_gpio_pull_select_chip

.text.mt_set_gpio_mode_chip
                0x020099f8       0x34
 .text.mt_set_gpio_mode_chip
                0xffffffffffffffff       0x34 ../../output/obj/PRELOADER_OBJ/obj/gpio.o
                0x020099f9                mt_set_gpio_mode_chip

.text.mt_set_gpio_dir
                0x02009a2c        0x4
 .text.mt_set_gpio_dir
                0xffffffffffffffff        0x4 ../../output/obj/PRELOADER_OBJ/obj/gpio.o
                0x02009a2d                mt_set_gpio_dir

.text.mt_set_gpio_pull_enable
                0x02009a30        0x4
 .text.mt_set_gpio_pull_enable
                0xffffffffffffffff        0x4 ../../output/obj/PRELOADER_OBJ/obj/gpio.o
                0x02009a31                mt_set_gpio_pull_enable

.text.mt_set_gpio_pull_select
                0x02009a34        0x4
 .text.mt_set_gpio_pull_select
                0xffffffffffffffff        0x4 ../../output/obj/PRELOADER_OBJ/obj/gpio.o
                0x02009a35                mt_set_gpio_pull_select

.text.mt_set_gpio_mode
                0x02009a38        0x4
 .text.mt_set_gpio_mode
                0xffffffffffffffff        0x4 ../../output/obj/PRELOADER_OBJ/obj/gpio.o
                0x02009a39                mt_set_gpio_mode

.text.mt_gpio_init_post
                0x02009a3c       0x38
 .text.mt_gpio_init_post
                0xffffffffffffffff       0x38 ../../output/obj/PRELOADER_OBJ/obj/gpio.o
                0x02009a3d                mt_gpio_init_post

.text.uart_recv
                0x02009a74       0x2c
 .text.uart_recv
                0xffffffffffffffff       0x2c ../../output/obj/PRELOADER_OBJ/obj/handshake_uart.o

.text.uart_send
                0x02009aa0       0x30
 .text.uart_send
                0xffffffffffffffff       0x30 ../../output/obj/PRELOADER_OBJ/obj/handshake_uart.o

.text.uart_handshake_init
                0x02009ad0       0x40
 .text.uart_handshake_init
                0xffffffffffffffff       0x40 ../../output/obj/PRELOADER_OBJ/obj/handshake_uart.o
                0x02009ad1                uart_handshake_init

.text.uart_handshake
                0x02009b10      0x138
 .text.uart_handshake
                0xffffffffffffffff      0x138 ../../output/obj/PRELOADER_OBJ/obj/handshake_uart.o
                0x02009b11                uart_handshake

.text.usb_recv  0x02009c48       0x52
 .text.usb_recv
                0xffffffffffffffff       0x52 ../../output/obj/PRELOADER_OBJ/obj/handshake_usb.o

.text.usb_send  0x02009c9a       0x16
 .text.usb_send
                0xffffffffffffffff       0x16 ../../output/obj/PRELOADER_OBJ/obj/handshake_usb.o

.text.usb_handshake
                0x02009cb0      0x2e8
 .text.usb_handshake
                0xffffffffffffffff      0x2e8 ../../output/obj/PRELOADER_OBJ/obj/handshake_usb.o
                0x02009cb1                usb_handshake

.text.armapi    0x02009fa0      0x170
 .text.armapi   0xffffffffffffffff      0x170 ../../output/obj/PRELOADER_OBJ/obj/init.o
                0x0200a05c                apmcu_disable_dcache
                0x02009fb0                apmcu_dcache_clean_invalidate
                0x0200a04c                apmcu_dsb
                0x02009fa0                apmcu_icache_invalidate
                0x0200a06c                apmcu_disable_icache
                0x0200a054                apmcu_isb
                0x0200a084                apmcu_disable_smp
                0x0200a094                __switch_to_smp
                0x0200a0b0                OtherCoreHandler

.text.wait_for_discon.constprop.0
                0x0200a110       0x64
 .text.wait_for_discon.constprop.0
                0xffffffffffffffff       0x64 ../../output/obj/PRELOADER_OBJ/obj/main.o

.text.bldr_cmd_handler
                0x0200a174      0x310
 .text.bldr_cmd_handler
                0xffffffffffffffff      0x310 ../../output/obj/PRELOADER_OBJ/obj/main.o

.text.bldr_load_part
                0x0200a484       0x3c
 .text.bldr_load_part
                0xffffffffffffffff       0x3c ../../output/obj/PRELOADER_OBJ/obj/main.o
                0x0200a485                bldr_load_part

.text.bldr_jump
                0x0200a4c0       0x84
 .text.bldr_jump
                0xffffffffffffffff       0x7c ../../output/obj/PRELOADER_OBJ/obj/main.o
                0x0200a4c1                bldr_jump

.text.startup.main
                0x0200a544      0x1a4
 .text.startup.main
                0xffffffffffffffff      0x1a4 ../../output/obj/PRELOADER_OBJ/obj/main.o
                0x0200a545                main

.text.gpt_wait_us_dsb
                0x0200a6e8        0x8
 .text.gpt_wait_us_dsb
                0xffffffffffffffff        0x8 ../../output/obj/PRELOADER_OBJ/obj/mt_emi.o

.text.get_mode_reg
                0x0200a6f0       0x78
 .text.get_mode_reg
                0xffffffffffffffff       0x78 ../../output/obj/PRELOADER_OBJ/obj/mt_emi.o
                0x0200a6f1                get_mode_reg

.text.get_board_dram_info
                0x0200a768      0x340
 .text.get_board_dram_info
                0xffffffffffffffff      0x340 ../../output/obj/PRELOADER_OBJ/obj/mt_emi.o
                0x0200a769                get_board_dram_info

.text.mt_get_mdl_number
                0x0200aaa8      0x290
 .text.mt_get_mdl_number
                0xffffffffffffffff      0x290 ../../output/obj/PRELOADER_OBJ/obj/mt_emi.o

.text.mt_get_dram_type
                0x0200ad38       0x38
 .text.mt_get_dram_type
                0xffffffffffffffff       0x38 ../../output/obj/PRELOADER_OBJ/obj/mt_emi.o
                0x0200ad39                mt_get_dram_type

.text.get_dram_rank_nr
                0x0200ad70       0x60
 .text.get_dram_rank_nr
                0xffffffffffffffff       0x60 ../../output/obj/PRELOADER_OBJ/obj/mt_emi.o
                0x0200ad71                get_dram_rank_nr

.text.get_dram_rank_size
                0x0200add0       0x4c
 .text.get_dram_rank_size
                0xffffffffffffffff       0x4c ../../output/obj/PRELOADER_OBJ/obj/mt_emi.o
                0x0200add1                get_dram_rank_size

.text.__EMI_InitializeLPDDR
                0x0200ae1c      0x890
 .text.__EMI_InitializeLPDDR
                0xffffffffffffffff      0x890 ../../output/obj/PRELOADER_OBJ/obj/mt_emi.o
                0x0200ae1d                __EMI_InitializeLPDDR

.text.__EMI_DataAutoTrackingRegRead
                0x0200b6ac      0x11c
 .text.__EMI_DataAutoTrackingRegRead
                0xffffffffffffffff      0x11c ../../output/obj/PRELOADER_OBJ/obj/mt_emi.o
                0x0200b6ad                __EMI_DataAutoTrackingRegRead

.text.__EmiDataTrainRegWrite
                0x0200b7c8       0x98
 .text.__EmiDataTrainRegWrite
                0xffffffffffffffff       0x98 ../../output/obj/PRELOADER_OBJ/obj/mt_emi.o
                0x0200b7c9                __EmiDataTrainRegWrite

.text.__EMI_DataTrackingMbistTestCore
                0x0200b860      0x124
 .text.__EMI_DataTrackingMbistTestCore
                0xffffffffffffffff      0x124 ../../output/obj/PRELOADER_OBJ/obj/mt_emi.o
                0x0200b861                __EMI_DataTrackingMbistTestCore

.text.__EMI_DataAutoTrackingMbistTest
                0x0200b984       0x40
 .text.__EMI_DataAutoTrackingMbistTest
                0xffffffffffffffff       0x40 ../../output/obj/PRELOADER_OBJ/obj/mt_emi.o
                0x0200b985                __EMI_DataAutoTrackingMbistTest

.text.__EMI_DataAutoTrackingTraining
                0x0200b9c4      0x6b8
 .text.__EMI_DataAutoTrackingTraining
                0xffffffffffffffff      0x6b8 ../../output/obj/PRELOADER_OBJ/obj/mt_emi.o
                0x0200b9c5                __EMI_DataAutoTrackingTraining

.text.__EMI_EnableDataAutoTracking
                0x0200c07c      0x528
 .text.__EMI_EnableDataAutoTracking
                0xffffffffffffffff      0x528 ../../output/obj/PRELOADER_OBJ/obj/mt_emi.o
                0x0200c07d                __EMI_EnableDataAutoTracking

.text.__EMI_EnablePerformancePowerControl
                0x0200c5a4      0x1b4
 .text.__EMI_EnablePerformancePowerControl
                0xffffffffffffffff      0x1b4 ../../output/obj/PRELOADER_OBJ/obj/mt_emi.o
                0x0200c5a5                __EMI_EnablePerformancePowerControl

.text.__EMI_EnableBandwidthLimiter
                0x0200c758      0x148
 .text.__EMI_EnableBandwidthLimiter
                0xffffffffffffffff      0x148 ../../output/obj/PRELOADER_OBJ/obj/mt_emi.o
                0x0200c759                __EMI_EnableBandwidthLimiter

.text.mt_set_emi
                0x0200c8a0      0x268
 .text.mt_set_emi
                0xffffffffffffffff      0x268 ../../output/obj/PRELOADER_OBJ/obj/mt_emi.o
                0x0200c8a1                mt_set_emi

.text.SRAM_repair
                0x0200cb08      0x1fc
 .text.SRAM_repair
                0xffffffffffffffff      0x1fc ../../output/obj/PRELOADER_OBJ/obj/mt_emi.o
                0x0200cb09                SRAM_repair

.text.i2c_v1_set_speed
                0x0200cd04        0x4
 .text.i2c_v1_set_speed
                0xffffffffffffffff        0x4 ../../output/obj/PRELOADER_OBJ/obj/mt_i2c.o
                0x0200cd05                i2c_v1_set_speed

.text.i2c_v1_read
                0x0200cd08        0x4
 .text.i2c_v1_read
                0xffffffffffffffff        0x4 ../../output/obj/PRELOADER_OBJ/obj/mt_i2c.o
                0x0200cd09                i2c_v1_read

.text.i2c_v1_write
                0x0200cd0c        0x4
 .text.i2c_v1_write
                0xffffffffffffffff        0x4 ../../output/obj/PRELOADER_OBJ/obj/mt_i2c.o
                0x0200cd0d                i2c_v1_write

.text.complex_mem_test
                0x0200cd10      0x408
 .text.complex_mem_test
                0xffffffffffffffff      0x408 ../../output/obj/PRELOADER_OBJ/obj/mt_memory.o
                0x0200cd11                complex_mem_test

.text.mt_mem_init
                0x0200d118       0x44
 .text.mt_mem_init
                0xffffffffffffffff       0x44 ../../output/obj/PRELOADER_OBJ/obj/mt_memory.o
                0x0200d119                mt_mem_init

.text.MFG_MM_SRAM_repair
                0x0200d15c       0x1e
 .text.MFG_MM_SRAM_repair
                0xffffffffffffffff       0x1e ../../output/obj/PRELOADER_OBJ/obj/mt_mmmfg_sram_repair.o
                0x0200d15d                MFG_MM_SRAM_repair

.text.mmsys_on  0x0200d17c       0xe0
 .text.mmsys_on
                0xffffffffffffffff       0xe0 ../../output/obj/PRELOADER_OBJ/obj/mt_mmsys_mfg_onoff.o
                0x0200d17d                mmsys_on

.text.mmsys_off
                0x0200d25c       0xa4
 .text.mmsys_off
                0xffffffffffffffff       0xa4 ../../output/obj/PRELOADER_OBJ/obj/mt_mmsys_mfg_onoff.o
                0x0200d25d                mmsys_off

.text.mfg_on    0x0200d300       0x80
 .text.mfg_on   0xffffffffffffffff       0x80 ../../output/obj/PRELOADER_OBJ/obj/mt_mmsys_mfg_onoff.o
                0x0200d301                mfg_on

.text.mfg_off   0x0200d380       0x70
 .text.mfg_off  0xffffffffffffffff       0x70 ../../output/obj/PRELOADER_OBJ/obj/mt_mmsys_mfg_onoff.o
                0x0200d381                mfg_off

.text.ptp_init1
                0x0200d3f0       0xc4
 .text.ptp_init1
                0xffffffffffffffff       0xc4 ../../output/obj/PRELOADER_OBJ/obj/mt_pl_ptp.o
                0x0200d3f1                ptp_init1

.text.wait_for_fsm_vldclr
                0x0200d4b4        0xc
 .text.wait_for_fsm_vldclr
                0xffffffffffffffff        0xc ../../output/obj/PRELOADER_OBJ/obj/mt_pmic_wrap_init.o

.text.wait_for_sync
                0x0200d4c0        0xa
 .text.wait_for_sync
                0xffffffffffffffff        0xa ../../output/obj/PRELOADER_OBJ/obj/mt_pmic_wrap_init.o

.text.wait_for_idle_and_sync
                0x0200d4ca       0x14
 .text.wait_for_idle_and_sync
                0xffffffffffffffff       0x14 ../../output/obj/PRELOADER_OBJ/obj/mt_pmic_wrap_init.o

.text.wait_for_cipher_ready
                0x0200d4de        0xa
 .text.wait_for_cipher_ready
                0xffffffffffffffff        0xa ../../output/obj/PRELOADER_OBJ/obj/mt_pmic_wrap_init.o

.text.wait_for_state_ready_init.constprop.6
                0x0200d4e8       0x58
 .text.wait_for_state_ready_init.constprop.6
                0xffffffffffffffff       0x58 ../../output/obj/PRELOADER_OBJ/obj/mt_pmic_wrap_init.o

.text.pwrap_dump_ap_register
                0x0200d540       0x54
 .text.pwrap_dump_ap_register
                0xffffffffffffffff       0x54 ../../output/obj/PRELOADER_OBJ/obj/mt_pmic_wrap_init.o
                0x0200d541                pwrap_dump_ap_register

.text.pwrap_wacs2
                0x0200d594      0x1e4
 .text.pwrap_wacs2
                0xffffffffffffffff      0x1e4 ../../output/obj/PRELOADER_OBJ/obj/mt_pmic_wrap_init.o
                0x0200d595                pwrap_wacs2

.text.pwrap_write
                0x0200d778        0xe
 .text.pwrap_write
                0xffffffffffffffff        0xe ../../output/obj/PRELOADER_OBJ/obj/mt_pmic_wrap_init.o
                0x0200d779                pwrap_write

.text.pwrap_read
                0x0200d786        0xe
 .text.pwrap_read
                0xffffffffffffffff        0xe ../../output/obj/PRELOADER_OBJ/obj/mt_pmic_wrap_init.o
                0x0200d787                pwrap_read

.text._pwrap_wacs2_nochk
                0x0200d794      0x160
 .text._pwrap_wacs2_nochk
                0xffffffffffffffff      0x160 ../../output/obj/PRELOADER_OBJ/obj/mt_pmic_wrap_init.o

.text.pwrap_read_nochk
                0x0200d8f4        0xe
 .text.pwrap_read_nochk
                0xffffffffffffffff        0xe ../../output/obj/PRELOADER_OBJ/obj/mt_pmic_wrap_init.o

.text.pwrap_write_nochk
                0x0200d902        0xe
 .text.pwrap_write_nochk
                0xffffffffffffffff        0xe ../../output/obj/PRELOADER_OBJ/obj/mt_pmic_wrap_init.o

.text.pwrap_init
                0x0200d910      0x6ec
 .text.pwrap_init
                0xffffffffffffffff      0x6ec ../../output/obj/PRELOADER_OBJ/obj/mt_pmic_wrap_init.o
                0x0200d911                pwrap_init

.text.pwrap_init_preloader
                0x0200dffc       0x44
 .text.pwrap_init_preloader
                0xffffffffffffffff       0x44 ../../output/obj/PRELOADER_OBJ/obj/mt_pmic_wrap_init.o
                0x0200dffd                pwrap_init_preloader

.text.rtc_xosc_check_clock
                0x0200e040       0x2e
 .text.rtc_xosc_check_clock
                0xffffffffffffffff       0x2e ../../output/obj/PRELOADER_OBJ/obj/mt_rtc.o

.text.rtc_eosc_check_clock
                0x0200e06e       0x38
 .text.rtc_eosc_check_clock
                0xffffffffffffffff       0x38 ../../output/obj/PRELOADER_OBJ/obj/mt_rtc.o

.text.rtc_mktime
                0x0200e0a6       0x74
 .text.rtc_mktime
                0xffffffffffffffff       0x74 ../../output/obj/PRELOADER_OBJ/obj/mt_rtc.o

.text.RTC_Read  0x0200e11a       0x14
 .text.RTC_Read
                0xffffffffffffffff       0x14 ../../output/obj/PRELOADER_OBJ/obj/mt_rtc.o

.text.rtc_check_lpd
                0x0200e12e       0x1e
 .text.rtc_check_lpd
                0xffffffffffffffff       0x1e ../../output/obj/PRELOADER_OBJ/obj/mt_rtc.o

.text.Write_trigger
                0x0200e14c       0x48
 .text.Write_trigger
                0xffffffffffffffff       0x48 ../../output/obj/PRELOADER_OBJ/obj/mt_rtc.o

.text.rtc_gpio_init
                0x0200e194       0x28
 .text.rtc_gpio_init
                0xffffffffffffffff       0x28 ../../output/obj/PRELOADER_OBJ/obj/mt_rtc.o

.text.rtc_xosc_write
                0x0200e1bc       0x3a
 .text.rtc_xosc_write
                0xffffffffffffffff       0x3a ../../output/obj/PRELOADER_OBJ/obj/mt_rtc.o

.text.get_frequency_meter
                0x0200e1f8       0xe8
 .text.get_frequency_meter
                0xffffffffffffffff       0xe8 ../../output/obj/PRELOADER_OBJ/obj/mt_rtc.o

.text.eosc_cali
                0x0200e2e0       0xb4
 .text.eosc_cali
                0xffffffffffffffff       0xb4 ../../output/obj/PRELOADER_OBJ/obj/mt_rtc.o

.text.rtc_measure_four_clock
                0x0200e394       0xb6
 .text.rtc_measure_four_clock
                0xffffffffffffffff       0xb6 ../../output/obj/PRELOADER_OBJ/obj/mt_rtc.o

.text.Writeif_unlock
                0x0200e44a       0x2c
 .text.Writeif_unlock
                0xffffffffffffffff       0x2c ../../output/obj/PRELOADER_OBJ/obj/mt_rtc.o

.text.rtc_lpd_init
                0x0200e476       0x64
 .text.rtc_lpd_init
                0xffffffffffffffff       0x64 ../../output/obj/PRELOADER_OBJ/obj/mt_rtc.o

.text.rtc_2sec_stat_clear
                0x0200e4dc       0x70
 .text.rtc_2sec_stat_clear
                0xffffffffffffffff       0x70 ../../output/obj/PRELOADER_OBJ/obj/mt_rtc.o

.text.rtc_android_init
                0x0200e54c      0x114
 .text.rtc_android_init
                0xffffffffffffffff      0x114 ../../output/obj/PRELOADER_OBJ/obj/mt_rtc.o

.text.rtc_frequency_meter_check
                0x0200e660       0xa8
 .text.rtc_frequency_meter_check
                0xffffffffffffffff       0xa8 ../../output/obj/PRELOADER_OBJ/obj/mt_rtc.o

.text.rtc_first_boot_init
                0x0200e708       0x6c
 .text.rtc_first_boot_init
                0xffffffffffffffff       0x6c ../../output/obj/PRELOADER_OBJ/obj/mt_rtc.o

.text.rtc_recovery_flow
                0x0200e774       0xc4
 .text.rtc_recovery_flow
                0xffffffffffffffff       0xc4 ../../output/obj/PRELOADER_OBJ/obj/mt_rtc.o

.text.rtc_mark_bypass_pwrkey
                0x0200e838       0x20
 .text.rtc_mark_bypass_pwrkey
                0xffffffffffffffff       0x20 ../../output/obj/PRELOADER_OBJ/obj/mt_rtc.o
                0x0200e839                rtc_mark_bypass_pwrkey

.text.rtc_save_low_power_detected
                0x0200e858       0x64
 .text.rtc_save_low_power_detected
                0xffffffffffffffff       0x64 ../../output/obj/PRELOADER_OBJ/obj/mt_rtc.o
                0x0200e859                rtc_save_low_power_detected

.text.pl_power_off
                0x0200e8bc       0x24
 .text.pl_power_off
                0xffffffffffffffff       0x24 ../../output/obj/PRELOADER_OBJ/obj/mt_rtc.o
                0x0200e8bd                pl_power_off

.text.rtc_save_2sec_stat
                0x0200e8e0       0x9c
 .text.rtc_save_2sec_stat
                0xffffffffffffffff       0x9c ../../output/obj/PRELOADER_OBJ/obj/mt_rtc.o
                0x0200e8e1                rtc_save_2sec_stat

.text.rtc_boot_check
                0x0200e97c      0x54c
 .text.rtc_boot_check
                0xffffffffffffffff      0x54c ../../output/obj/PRELOADER_OBJ/obj/mt_rtc.o
                0x0200e97d                rtc_boot_check

.text.rtc_2sec_reboot_check
                0x0200eec8        0xc
 .text.rtc_2sec_reboot_check
                0xffffffffffffffff        0xc ../../output/obj/PRELOADER_OBJ/obj/mt_rtc.o
                0x0200eec9                rtc_2sec_reboot_check

.text.rtc_enable_2sec_reboot
                0x0200eed4       0x24
 .text.rtc_enable_2sec_reboot
                0xffffffffffffffff       0x24 ../../output/obj/PRELOADER_OBJ/obj/mt_rtc.o
                0x0200eed5                rtc_enable_2sec_reboot

.text.rtc_bbpu_power_on
                0x0200eef8       0x40
 .text.rtc_bbpu_power_on
                0xffffffffffffffff       0x40 ../../output/obj/PRELOADER_OBJ/obj/mt_rtc.o
                0x0200eef9                rtc_bbpu_power_on

.text.mt_read_fifo
                0x0200ef38       0x70
 .text.mt_read_fifo
                0xffffffffffffffff       0x70 ../../output/obj/PRELOADER_OBJ/obj/mt_usbd.o

.text.mt_find_ep
                0x0200efa8       0x3c
 .text.mt_find_ep
                0xffffffffffffffff       0x3c ../../output/obj/PRELOADER_OBJ/obj/mt_usbd.o

.text.mt_udc_flush_fifo
                0x0200efe4       0x4c
 .text.mt_udc_flush_fifo
                0xffffffffffffffff       0x4c ../../output/obj/PRELOADER_OBJ/obj/mt_usbd.o

.text.mt_write_fifo
                0x0200f030       0x8c
 .text.mt_write_fifo
                0xffffffffffffffff       0x8c ../../output/obj/PRELOADER_OBJ/obj/mt_usbd.o

.text.mt_udc_ep0_write
                0x0200f0bc       0x74
 .text.mt_udc_ep0_write
                0xffffffffffffffff       0x74 ../../output/obj/PRELOADER_OBJ/obj/mt_usbd.o

.text.mt_udc_reset
                0x0200f130       0xb4
 .text.mt_udc_reset
                0xffffffffffffffff       0xb4 ../../output/obj/PRELOADER_OBJ/obj/mt_usbd.o

.text.copy_desc
                0x0200f1e4       0x2e
 .text.copy_desc
                0xffffffffffffffff       0x2e ../../output/obj/PRELOADER_OBJ/obj/mt_usbd.o

.text.mt_udc_irq
                0x0200f214      0x604
 .text.mt_udc_irq
                0xffffffffffffffff      0x604 ../../output/obj/PRELOADER_OBJ/obj/mt_usbd.o
                0x0200f215                mt_udc_irq

.text.mt_ep_write
                0x0200f818       0x3c
 .text.mt_ep_write
                0xffffffffffffffff       0x3c ../../output/obj/PRELOADER_OBJ/obj/mt_usbd.o
                0x0200f819                mt_ep_write

.text.mt_ep_busy
                0x0200f854       0x2c
 .text.mt_ep_busy
                0xffffffffffffffff       0x2c ../../output/obj/PRELOADER_OBJ/obj/mt_usbd.o
                0x0200f855                mt_ep_busy

.text.mt_setup_ep
                0x0200f880      0x178
 .text.mt_setup_ep
                0xffffffffffffffff      0x178 ../../output/obj/PRELOADER_OBJ/obj/mt_usbd.o
                0x0200f881                mt_setup_ep

.text.mt_usb_connect_internal
                0x0200f9f8       0x10
 .text.mt_usb_connect_internal
                0xffffffffffffffff       0x10 ../../output/obj/PRELOADER_OBJ/obj/mt_usbd.o
                0x0200f9f9                mt_usb_connect_internal

.text.mt_usb_disconnect_internal
                0x0200fa08       0x10
 .text.mt_usb_disconnect_internal
                0xffffffffffffffff       0x10 ../../output/obj/PRELOADER_OBJ/obj/mt_usbd.o
                0x0200fa09                mt_usb_disconnect_internal

.text.udc_enable
                0x0200fa18       0x44
 .text.udc_enable
                0xffffffffffffffff       0x44 ../../output/obj/PRELOADER_OBJ/obj/mt_usbd.o
                0x0200fa19                udc_enable

.text.usb_service_offline
                0x0200fa5c        0xe
 .text.usb_service_offline
                0xffffffffffffffff        0xe ../../output/obj/PRELOADER_OBJ/obj/mt_usbd.o
                0x0200fa5d                usb_service_offline

.text.mt_usb_phy_poweron
                0x0200fa6c       0x64
 .text.mt_usb_phy_poweron
                0xffffffffffffffff       0x64 ../../output/obj/PRELOADER_OBJ/obj/mt_usbphy.o
                0x0200fa6d                mt_usb_phy_poweron

.text.mt_usb_phy_savecurrent
                0x0200fad0       0xbc
 .text.mt_usb_phy_savecurrent
                0xffffffffffffffff       0xbc ../../output/obj/PRELOADER_OBJ/obj/mt_usbphy.o
                0x0200fad1                mt_usb_phy_savecurrent

.text.mt_usb_phy_recover
                0x0200fb8c      0x134
 .text.mt_usb_phy_recover
                0xffffffffffffffff      0x134 ../../output/obj/PRELOADER_OBJ/obj/mt_usbphy.o
                0x0200fb8d                mt_usb_phy_recover

.text.mt_usb_phy_calibraion
                0x0200fcc0      0x14c
 .text.mt_usb_phy_calibraion
                0xffffffffffffffff      0x14c ../../output/obj/PRELOADER_OBJ/obj/mt_usbphy.o
                0x0200fcc1                mt_usb_phy_calibraion

.text.mt_usb_calibraion
                0x0200fe0c       0x6c
 .text.mt_usb_calibraion
                0xffffffffffffffff       0x6c ../../output/obj/PRELOADER_OBJ/obj/mt_usbphy.o
                0x0200fe0d                mt_usb_calibraion

.text.Charger_Detect_Init
                0x0200fe78       0x10
 .text.Charger_Detect_Init
                0xffffffffffffffff       0x10 ../../output/obj/PRELOADER_OBJ/obj/mt_usbphy.o
                0x0200fe79                Charger_Detect_Init

.text.Charger_Detect_Release
                0x0200fe88       0x10
 .text.Charger_Detect_Release
                0xffffffffffffffff       0x10 ../../output/obj/PRELOADER_OBJ/obj/mt_usbphy.o
                0x0200fe89                Charger_Detect_Release

.text.mt_usb_set_to_uart_mode
                0x0200fe98       0x5c
 .text.mt_usb_set_to_uart_mode
                0xffffffffffffffff       0x5c ../../output/obj/PRELOADER_OBJ/obj/mt_usbphy.o
                0x0200fe99                mt_usb_set_to_uart_mode

.text.is_uart_cable_inserted
                0x0200fef4       0x64
 .text.is_uart_cable_inserted
                0xffffffffffffffff       0x64 ../../output/obj/PRELOADER_OBJ/obj/mt_usbphy.o
                0x0200fef5                is_uart_cable_inserted

.text.str2wide  0x0200ff58       0x22
 .text.str2wide
                0xffffffffffffffff       0x22 ../../output/obj/PRELOADER_OBJ/obj/mt_usbtty.o

.text.ep_to_buf.constprop.0
                0x0200ff7c       0x2c
 .text.ep_to_buf.constprop.0
                0xffffffffffffffff       0x2c ../../output/obj/PRELOADER_OBJ/obj/mt_usbtty.o

.text.usb_alloc_urb
                0x0200ffa8       0x50
 .text.usb_alloc_urb
                0xffffffffffffffff       0x50 ../../output/obj/PRELOADER_OBJ/obj/mt_usbtty.o
                0x0200ffa9                usb_alloc_urb

.text.usbdl_init
                0x0200fff8      0x308
 .text.usbdl_init
                0xffffffffffffffff      0x308 ../../output/obj/PRELOADER_OBJ/obj/mt_usbtty.o
                0x0200fff9                usbdl_init

.text.tool_is_present
                0x02010300       0x14
 .text.tool_is_present
                0xffffffffffffffff       0x14 ../../output/obj/PRELOADER_OBJ/obj/mt_usbtty.o
                0x02010301                tool_is_present

.text.tool_state_update
                0x02010314       0x14
 .text.tool_state_update
                0xffffffffffffffff       0x14 ../../output/obj/PRELOADER_OBJ/obj/mt_usbtty.o
                0x02010315                tool_state_update

.text.usbdl_configured
                0x02010328       0x14
 .text.usbdl_configured
                0xffffffffffffffff       0x14 ../../output/obj/PRELOADER_OBJ/obj/mt_usbtty.o
                0x02010329                usbdl_configured

.text.enable_highspeed
                0x0201033c       0x74
 .text.enable_highspeed
                0xffffffffffffffff       0x74 ../../output/obj/PRELOADER_OBJ/obj/mt_usbtty.o
                0x0201033d                enable_highspeed

.text.config_usbtty
                0x020103b0       0x48
 .text.config_usbtty
                0xffffffffffffffff       0x48 ../../output/obj/PRELOADER_OBJ/obj/mt_usbtty.o
                0x020103b1                config_usbtty

.text.service_interrupts
                0x020103f8       0x5c
 .text.service_interrupts
                0xffffffffffffffff       0x5c ../../output/obj/PRELOADER_OBJ/obj/mt_usbtty.o
                0x020103f9                service_interrupts

.text.usbdl_poll
                0x02010454       0x7c
 .text.usbdl_poll
                0xffffffffffffffff       0x7c ../../output/obj/PRELOADER_OBJ/obj/mt_usbtty.o
                0x02010455                usbdl_poll

.text.usbdl_flush
                0x020104d0       0x50
 .text.usbdl_flush
                0xffffffffffffffff       0x50 ../../output/obj/PRELOADER_OBJ/obj/mt_usbtty.o
                0x020104d1                usbdl_flush

.text.mt_usbtty_flush
                0x02010520        0x4
 .text.mt_usbtty_flush
                0xffffffffffffffff        0x4 ../../output/obj/PRELOADER_OBJ/obj/mt_usbtty.o
                0x02010521                mt_usbtty_flush

.text.mt_usbtty_getcn
                0x02010524       0x60
 .text.mt_usbtty_getcn
                0xffffffffffffffff       0x60 ../../output/obj/PRELOADER_OBJ/obj/mt_usbtty.o
                0x02010525                mt_usbtty_getcn

.text.mt_usbtty_putcn
                0x02010584       0x68
 .text.mt_usbtty_putcn
                0xffffffffffffffff       0x68 ../../output/obj/PRELOADER_OBJ/obj/mt_usbtty.o
                0x02010585                mt_usbtty_putcn

.text.mt_usbtty_puts
                0x020105ec       0x58
 .text.mt_usbtty_puts
                0xffffffffffffffff       0x58 ../../output/obj/PRELOADER_OBJ/obj/mt_usbtty.o
                0x020105ed                mt_usbtty_puts

.text.mt_usbtty_query_data_size
                0x02010644       0x2c
 .text.mt_usbtty_query_data_size
                0xffffffffffffffff       0x2c ../../output/obj/PRELOADER_OBJ/obj/mt_usbtty.o
                0x02010645                mt_usbtty_query_data_size

.text.mtk_kpd_gpios_get
                0x02010670       0x3a
 .text.mtk_kpd_gpios_get
                0xffffffffffffffff       0x3a ../../output/obj/PRELOADER_OBJ/obj/mtk_key.o
                0x02010671                mtk_kpd_gpios_get

.text.mtk_kpd_gpio_set
                0x020106ac      0x134
 .text.mtk_kpd_gpio_set
                0xffffffffffffffff      0x134 ../../output/obj/PRELOADER_OBJ/obj/mtk_key.o
                0x020106ad                mtk_kpd_gpio_set

.text.set_kpd_pmic_mode
                0x020107e0       0x78
 .text.set_kpd_pmic_mode
                0xffffffffffffffff       0x78 ../../output/obj/PRELOADER_OBJ/obj/mtk_key.o
                0x020107e1                set_kpd_pmic_mode

.text.enable_PMIC_kpd_clock
                0x02010858        0x2
 .text.enable_PMIC_kpd_clock
                0xffffffffffffffff        0x2 ../../output/obj/PRELOADER_OBJ/obj/mtk_key.o
                0x02010859                enable_PMIC_kpd_clock

.text.mtk_detect_key
                0x0201085c       0x64
 .text.mtk_detect_key
                0xffffffffffffffff       0x64 ../../output/obj/PRELOADER_OBJ/obj/mtk_key.o
                0x0201085d                mtk_detect_key

.text.mtk_detect_dl_keys
                0x020108c0       0x38
 .text.mtk_detect_dl_keys
                0xffffffffffffffff       0x38 ../../output/obj/PRELOADER_OBJ/obj/mtk_key.o
                0x020108c1                mtk_detect_dl_keys

.text.mtk_nand_check_RW_count
                0x020108f8       0x20
 .text.mtk_nand_check_RW_count
                0xffffffffffffffff       0x20 ../../output/obj/PRELOADER_OBJ/obj/mtk_nand.o

.text.mtk_nand_status_ready
                0x02010918       0x20
 .text.mtk_nand_status_ready
                0xffffffffffffffff       0x20 ../../output/obj/PRELOADER_OBJ/obj/mtk_nand.o

.text.mtk_nand_set_mode
                0x02010938       0x18
 .text.mtk_nand_set_mode
                0xffffffffffffffff       0x18 ../../output/obj/PRELOADER_OBJ/obj/mtk_nand.o

.text.mtk_nand_set_command
                0x02010950       0x10
 .text.mtk_nand_set_command
                0xffffffffffffffff       0x10 ../../output/obj/PRELOADER_OBJ/obj/mtk_nand.o

.text.mtk_nand_read_byte
                0x02010960       0x20
 .text.mtk_nand_read_byte
                0xffffffffffffffff       0x20 ../../output/obj/PRELOADER_OBJ/obj/mtk_nand.o

.text.mtk_nand_stop_read
                0x02010980       0x40
 .text.mtk_nand_stop_read
                0xffffffffffffffff       0x40 ../../output/obj/PRELOADER_OBJ/obj/mtk_nand.o

.text.mtk_nand_stop_write
                0x020109c0       0x40
 .text.mtk_nand_stop_write
                0xffffffffffffffff       0x40 ../../output/obj/PRELOADER_OBJ/obj/mtk_nand.o

.text.mtk_nand_check_dececc_done
                0x02010a00       0x2c
 .text.mtk_nand_check_dececc_done
                0xffffffffffffffff       0x2c ../../output/obj/PRELOADER_OBJ/obj/mtk_nand.o

.text.mtk_nand_read_fdm_data
                0x02010a2c       0x30
 .text.mtk_nand_read_fdm_data
                0xffffffffffffffff       0x30 ../../output/obj/PRELOADER_OBJ/obj/mtk_nand.o

.text.mtk_nand_write_fdm_data
                0x02010a5c       0x30
 .text.mtk_nand_write_fdm_data
                0xffffffffffffffff       0x30 ../../output/obj/PRELOADER_OBJ/obj/mtk_nand.o

.text.mtk_nand_check_bch_error.isra.0
                0x02010a8c       0x78
 .text.mtk_nand_check_bch_error.isra.0
                0xffffffffffffffff       0x78 ../../output/obj/PRELOADER_OBJ/obj/mtk_nand.o

.text.mtk_nand_read_page_data.isra.2
                0x02010b04       0x7c
 .text.mtk_nand_read_page_data.isra.2
                0xffffffffffffffff       0x7c ../../output/obj/PRELOADER_OBJ/obj/mtk_nand.o

.text.mtk_nand_write_page_data.isra.3
                0x02010b80       0x4c
 .text.mtk_nand_write_page_data.isra.3
                0xffffffffffffffff       0x4c ../../output/obj/PRELOADER_OBJ/obj/mtk_nand.o

.text.mtk_nand_reset_descriptor
                0x02010bcc       0x34
 .text.mtk_nand_reset_descriptor
                0xffffffffffffffff       0x34 ../../output/obj/PRELOADER_OBJ/obj/mtk_nand.o
                0x02010bcd                mtk_nand_reset_descriptor

.text.get_device_info
                0x02010c00      0x140
 .text.get_device_info
                0xffffffffffffffff      0x140 ../../output/obj/PRELOADER_OBJ/obj/mtk_nand.o
                0x02010c01                get_device_info

.text.mtk_nand_reset
                0x02010d40       0x8c
 .text.mtk_nand_reset
                0xffffffffffffffff       0x8c ../../output/obj/PRELOADER_OBJ/obj/mtk_nand.o
                0x02010d41                mtk_nand_reset

.text.mtk_nand_read_status
                0x02010dcc       0xe8
 .text.mtk_nand_read_status
                0xffffffffffffffff       0xe8 ../../output/obj/PRELOADER_OBJ/obj/mtk_nand.o

.text.mtk_nand_ready_for_write
                0x02010eb4       0xf0
 .text.mtk_nand_ready_for_write
                0xffffffffffffffff       0xf0 ../../output/obj/PRELOADER_OBJ/obj/mtk_nand.o

.text.mtk_nand_ready_for_read
                0x02010fa4      0x104
 .text.mtk_nand_ready_for_read
                0xffffffffffffffff      0x104 ../../output/obj/PRELOADER_OBJ/obj/mtk_nand.o

.text.mtk_nand_command_bp.part.4
                0x020110a8       0xac
 .text.mtk_nand_command_bp.part.4
                0xffffffffffffffff       0xac ../../output/obj/PRELOADER_OBJ/obj/mtk_nand.o

.text.getflashid
                0x02011154       0x50
 .text.getflashid
                0xffffffffffffffff       0x50 ../../output/obj/PRELOADER_OBJ/obj/mtk_nand.o
                0x02011155                getflashid

.text.mtk_nand_gpio_init
                0x020111a4       0x3c
 .text.mtk_nand_gpio_init
                0xffffffffffffffff       0x3c ../../output/obj/PRELOADER_OBJ/obj/mtk_nand.o
                0x020111a5                mtk_nand_gpio_init

.text.mtk_nand_init
                0x020111e0      0x3bc
 .text.mtk_nand_init
                0xffffffffffffffff      0x3bc ../../output/obj/PRELOADER_OBJ/obj/mtk_nand.o
                0x020111e1                mtk_nand_init

.text.mtk_nand_read_page_hw
                0x0201159c       0x84
 .text.mtk_nand_read_page_hw
                0xffffffffffffffff       0x84 ../../output/obj/PRELOADER_OBJ/obj/mtk_nand.o
                0x0201159d                mtk_nand_read_page_hw

.text.mtk_nand_read_page_hwecc
                0x02011620       0x98
 .text.mtk_nand_read_page_hwecc
                0xffffffffffffffff       0x98 ../../output/obj/PRELOADER_OBJ/obj/mtk_nand.o
                0x02011621                mtk_nand_read_page_hwecc

.text.mtk_nand_write_page_hw
                0x020116b8       0xc8
 .text.mtk_nand_write_page_hw
                0xffffffffffffffff       0xc8 ../../output/obj/PRELOADER_OBJ/obj/mtk_nand.o
                0x020116b9                mtk_nand_write_page_hw

.text.mtk_nand_write_page_hwecc
                0x02011780       0xf0
 .text.mtk_nand_write_page_hwecc
                0xffffffffffffffff       0xf0 ../../output/obj/PRELOADER_OBJ/obj/mtk_nand.o
                0x02011781                mtk_nand_write_page_hwecc

.text.nand_block_bad_hw
                0x02011870       0xa4
 .text.nand_block_bad_hw
                0xffffffffffffffff       0xa4 ../../output/obj/PRELOADER_OBJ/obj/mtk_nand.o
                0x02011871                nand_block_bad_hw

.text.nand_block_bad
                0x02011914       0x44
 .text.nand_block_bad
                0xffffffffffffffff       0x44 ../../output/obj/PRELOADER_OBJ/obj/mtk_nand.o
                0x02011915                nand_block_bad

.text.mark_block_bad_hw
                0x02011958       0xb8
 .text.mark_block_bad_hw
                0xffffffffffffffff       0xb8 ../../output/obj/PRELOADER_OBJ/obj/mtk_nand.o
                0x02011959                mark_block_bad_hw

.text.mark_block_bad
                0x02011a10       0x28
 .text.mark_block_bad
                0xffffffffffffffff       0x28 ../../output/obj/PRELOADER_OBJ/obj/mtk_nand.o
                0x02011a11                mark_block_bad

.text.mtk_nand_erase_hw
                0x02011a38       0x88
 .text.mtk_nand_erase_hw
                0xffffffffffffffff       0x88 ../../output/obj/PRELOADER_OBJ/obj/mtk_nand.o
                0x02011a39                mtk_nand_erase_hw

.text.mtk_nand_erase
                0x02011ac0       0x4c
 .text.mtk_nand_erase
                0xffffffffffffffff       0x4c ../../output/obj/PRELOADER_OBJ/obj/mtk_nand.o
                0x02011ac1                mtk_nand_erase

.text.nand_init_device
                0x02011b0c       0x84
 .text.nand_init_device
                0xffffffffffffffff       0x84 ../../output/obj/PRELOADER_OBJ/obj/mtk_nand.o
                0x02011b0d                nand_init_device

.text.nand_get_device_id
                0x02011b90       0x36
 .text.nand_get_device_id
                0xffffffffffffffff       0x36 ../../output/obj/PRELOADER_OBJ/obj/mtk_nand.o
                0x02011b91                nand_get_device_id

.text.nand_find_safe_block
                0x02011bc8       0xd8
 .text.nand_find_safe_block
                0xffffffffffffffff       0xd8 ../../output/obj/PRELOADER_OBJ/obj/mtk_nand.o
                0x02011bc9                nand_find_safe_block

.text.nand_read_data
                0x02011ca0       0x28
 .text.nand_read_data
                0xffffffffffffffff       0x28 ../../output/obj/PRELOADER_OBJ/obj/mtk_nand.o
                0x02011ca1                nand_read_data

.text.nand_bread
                0x02011cc8       0x26
 .text.nand_bread
                0xffffffffffffffff       0x26 ../../output/obj/PRELOADER_OBJ/obj/mtk_nand.o

.text.nand_write_data
                0x02011cf0       0x3c
 .text.nand_write_data
                0xffffffffffffffff       0x3c ../../output/obj/PRELOADER_OBJ/obj/mtk_nand.o
                0x02011cf1                nand_write_data

.text.nand_bwrite
                0x02011d2c       0x26
 .text.nand_bwrite
                0xffffffffffffffff       0x26 ../../output/obj/PRELOADER_OBJ/obj/mtk_nand.o

.text.nand_erase_data
                0x02011d54       0xd4
 .text.nand_erase_data
                0xffffffffffffffff       0xd4 ../../output/obj/PRELOADER_OBJ/obj/mtk_nand.o
                0x02011d55                nand_erase_data

.text.mtk_pll_init_emi
                0x02011e28       0x64
 .text.mtk_pll_init_emi
                0xffffffffffffffff       0x64 ../../output/obj/PRELOADER_OBJ/obj/mtk_pll.o
                0x02011e29                mtk_pll_init_emi

.text.pmic_read_interface
                0x02011e8c       0x28
 .text.pmic_read_interface
                0xffffffffffffffff       0x28 ../../output/obj/PRELOADER_OBJ/obj/mtk_pmic_6323.o
                0x02011e8d                pmic_read_interface

.text.pmic_config_interface
                0x02011eb4       0x34
 .text.pmic_config_interface
                0xffffffffffffffff       0x34 ../../output/obj/PRELOADER_OBJ/obj/mtk_pmic_6323.o
                0x02011eb5                pmic_config_interface

.text.pmic_lock
                0x02011ee8        0x2
 .text.pmic_lock
                0xffffffffffffffff        0x2 ../../output/obj/PRELOADER_OBJ/obj/mtk_pmic_6323.o
                0x02011ee9                pmic_lock

.text.pmic_unlock
                0x02011eea        0x2
 .text.pmic_unlock
                0xffffffffffffffff        0x2 ../../output/obj/PRELOADER_OBJ/obj/mtk_pmic_6323.o
                0x02011eeb                pmic_unlock

.text.upmu_set_rg_bc11_bb_ctrl
                0x02011eec       0x1c
 .text.upmu_set_rg_bc11_bb_ctrl
                0xffffffffffffffff       0x1c ../../output/obj/PRELOADER_OBJ/obj/mtk_pmic_6323.o
                0x02011eed                upmu_set_rg_bc11_bb_ctrl

.text.upmu_set_rg_bc11_rst
                0x02011f08       0x1c
 .text.upmu_set_rg_bc11_rst
                0xffffffffffffffff       0x1c ../../output/obj/PRELOADER_OBJ/obj/mtk_pmic_6323.o
                0x02011f09                upmu_set_rg_bc11_rst

.text.upmu_set_rg_bc11_vsrc_en
                0x02011f24       0x1c
 .text.upmu_set_rg_bc11_vsrc_en
                0xffffffffffffffff       0x1c ../../output/obj/PRELOADER_OBJ/obj/mtk_pmic_6323.o
                0x02011f25                upmu_set_rg_bc11_vsrc_en

.text.upmu_get_rgs_bc11_cmp_out
                0x02011f40       0x22
 .text.upmu_get_rgs_bc11_cmp_out
                0xffffffffffffffff       0x22 ../../output/obj/PRELOADER_OBJ/obj/mtk_pmic_6323.o
                0x02011f41                upmu_get_rgs_bc11_cmp_out

.text.upmu_set_rg_bc11_vref_vth
                0x02011f62       0x1c
 .text.upmu_set_rg_bc11_vref_vth
                0xffffffffffffffff       0x1c ../../output/obj/PRELOADER_OBJ/obj/mtk_pmic_6323.o
                0x02011f63                upmu_set_rg_bc11_vref_vth

.text.upmu_set_rg_bc11_cmp_en
                0x02011f7e       0x1c
 .text.upmu_set_rg_bc11_cmp_en
                0xffffffffffffffff       0x1c ../../output/obj/PRELOADER_OBJ/obj/mtk_pmic_6323.o
                0x02011f7f                upmu_set_rg_bc11_cmp_en

.text.upmu_set_rg_bc11_ipd_en
                0x02011f9a       0x1c
 .text.upmu_set_rg_bc11_ipd_en
                0xffffffffffffffff       0x1c ../../output/obj/PRELOADER_OBJ/obj/mtk_pmic_6323.o
                0x02011f9b                upmu_set_rg_bc11_ipd_en

.text.upmu_set_rg_bc11_ipu_en
                0x02011fb6       0x1c
 .text.upmu_set_rg_bc11_ipu_en
                0xffffffffffffffff       0x1c ../../output/obj/PRELOADER_OBJ/obj/mtk_pmic_6323.o
                0x02011fb7                upmu_set_rg_bc11_ipu_en

.text.upmu_set_rg_bc11_bias_en
                0x02011fd2       0x1c
 .text.upmu_set_rg_bc11_bias_en
                0xffffffffffffffff       0x1c ../../output/obj/PRELOADER_OBJ/obj/mtk_pmic_6323.o
                0x02011fd3                upmu_set_rg_bc11_bias_en

.text.hw_bc11_init
                0x02011fee       0x40
 .text.hw_bc11_init
                0xffffffffffffffff       0x40 ../../output/obj/PRELOADER_OBJ/obj/mtk_pmic_6323.o
                0x02011fef                hw_bc11_init

.text.hw_bc11_DCD
                0x0201202e       0x44
 .text.hw_bc11_DCD
                0xffffffffffffffff       0x44 ../../output/obj/PRELOADER_OBJ/obj/mtk_pmic_6323.o
                0x0201202f                hw_bc11_DCD

.text.hw_bc11_stepA1
                0x02012072       0x30
 .text.hw_bc11_stepA1
                0xffffffffffffffff       0x30 ../../output/obj/PRELOADER_OBJ/obj/mtk_pmic_6323.o
                0x02012073                hw_bc11_stepA1

.text.hw_bc11_stepB1
                0x020120a2       0x36
 .text.hw_bc11_stepB1
                0xffffffffffffffff       0x36 ../../output/obj/PRELOADER_OBJ/obj/mtk_pmic_6323.o
                0x020120a3                hw_bc11_stepB1

.text.hw_bc11_stepC1
                0x020120d8       0x36
 .text.hw_bc11_stepC1
                0xffffffffffffffff       0x36 ../../output/obj/PRELOADER_OBJ/obj/mtk_pmic_6323.o
                0x020120d9                hw_bc11_stepC1

.text.hw_bc11_stepA2
                0x0201210e       0x3c
 .text.hw_bc11_stepA2
                0xffffffffffffffff       0x3c ../../output/obj/PRELOADER_OBJ/obj/mtk_pmic_6323.o
                0x0201210f                hw_bc11_stepA2

.text.hw_bc11_stepB2
                0x0201214a       0x36
 .text.hw_bc11_stepB2
                0xffffffffffffffff       0x36 ../../output/obj/PRELOADER_OBJ/obj/mtk_pmic_6323.o
                0x0201214b                hw_bc11_stepB2

.text.hw_bc11_done
                0x02012180       0x2e
 .text.hw_bc11_done
                0xffffffffffffffff       0x2e ../../output/obj/PRELOADER_OBJ/obj/mtk_pmic_6323.o
                0x02012181                hw_bc11_done

.text.hw_charger_type_detection
                0x020121b0       0xac
 .text.hw_charger_type_detection
                0xffffffffffffffff       0xac ../../output/obj/PRELOADER_OBJ/obj/mtk_pmic_6323.o
                0x020121b1                hw_charger_type_detection

.text.mt_charger_type_detection
                0x0201225c       0x44
 .text.mt_charger_type_detection
                0xffffffffffffffff       0x44 ../../output/obj/PRELOADER_OBJ/obj/mtk_pmic_6323.o
                0x0201225d                mt_charger_type_detection

.text.get_pmic6323_chip_version
                0x020122a0       0x1a
 .text.get_pmic6323_chip_version
                0xffffffffffffffff       0x1a ../../output/obj/PRELOADER_OBJ/obj/mtk_pmic_6323.o
                0x020122a1                get_pmic6323_chip_version

.text.pmic_detect_powerkey
                0x020122bc       0x3c
 .text.pmic_detect_powerkey
                0xffffffffffffffff       0x3c ../../output/obj/PRELOADER_OBJ/obj/mtk_pmic_6323.o
                0x020122bd                pmic_detect_powerkey

.text.pmic_IsUsbCableIn
                0x020122f8       0x24
 .text.pmic_IsUsbCableIn
                0xffffffffffffffff       0x24 ../../output/obj/PRELOADER_OBJ/obj/mtk_pmic_6323.o
                0x020122f9                pmic_IsUsbCableIn

.text.hw_set_cc
                0x0201231c      0x228
 .text.hw_set_cc
                0xffffffffffffffff      0x228 ../../output/obj/PRELOADER_OBJ/obj/mtk_pmic_6323.o
                0x0201231d                hw_set_cc

.text.pl_hw_ulc_det
                0x02012544       0x1e
 .text.pl_hw_ulc_det
                0xffffffffffffffff       0x1e ../../output/obj/PRELOADER_OBJ/obj/mtk_pmic_6323.o
                0x02012545                pl_hw_ulc_det

.text.hw_check_battery
                0x02012564       0x94
 .text.hw_check_battery
                0xffffffffffffffff       0x94 ../../output/obj/PRELOADER_OBJ/obj/mtk_pmic_6323.o
                0x02012565                hw_check_battery

.text.pl_charging
                0x020125f8       0x90
 .text.pl_charging
                0xffffffffffffffff       0x90 ../../output/obj/PRELOADER_OBJ/obj/mtk_pmic_6323.o
                0x020125f9                pl_charging

.text.pl_kick_chr_wdt
                0x02012688       0x42
 .text.pl_kick_chr_wdt
                0xffffffffffffffff       0x42 ../../output/obj/PRELOADER_OBJ/obj/mtk_pmic_6323.o
                0x02012689                pl_kick_chr_wdt

.text.pl_close_pre_chr_led
                0x020126cc       0x20
 .text.pl_close_pre_chr_led
                0xffffffffffffffff       0x20 ../../output/obj/PRELOADER_OBJ/obj/mtk_pmic_6323.o
                0x020126cd                pl_close_pre_chr_led

.text.pmic_init
                0x020126ec       0x70
 .text.pmic_init
                0xffffffffffffffff       0x70 ../../output/obj/PRELOADER_OBJ/obj/mtk_pmic_6323.o
                0x020126ed                pmic_init

.text.gpt4_get_current_tick
                0x0201275c        0xc
 .text.gpt4_get_current_tick
                0xffffffffffffffff        0xc ../../output/obj/PRELOADER_OBJ/obj/mtk_timer.o
                0x0201275d                gpt4_get_current_tick

.text.gpt4_timeout_tick
                0x02012768       0x20
 .text.gpt4_timeout_tick
                0xffffffffffffffff       0x20 ../../output/obj/PRELOADER_OBJ/obj/mtk_timer.o
                0x02012769                gpt4_timeout_tick

.text.gpt4_time2tick_us
                0x02012788       0x18
 .text.gpt4_time2tick_us
                0xffffffffffffffff       0x18 ../../output/obj/PRELOADER_OBJ/obj/mtk_timer.o
                0x02012789                gpt4_time2tick_us

.text.gpt_busy_wait_us
                0x020127a0       0x1c
 .text.gpt_busy_wait_us
                0xffffffffffffffff       0x1c ../../output/obj/PRELOADER_OBJ/obj/mtk_timer.o
                0x020127a1                gpt_busy_wait_us

.text.gpt_busy_wait_ms
                0x020127bc       0x44
 .text.gpt_busy_wait_ms
                0xffffffffffffffff       0x44 ../../output/obj/PRELOADER_OBJ/obj/mtk_timer.o
                0x020127bd                gpt_busy_wait_ms

.text.get_timer
                0x02012800       0x80
 .text.get_timer
                0xffffffffffffffff       0x80 ../../output/obj/PRELOADER_OBJ/obj/mtk_timer.o
                0x02012801                get_timer

.text.mdelay    0x02012880        0x4
 .text.mdelay   0xffffffffffffffff        0x4 ../../output/obj/PRELOADER_OBJ/obj/mtk_timer.o
                0x02012881                mdelay

.text.udelay    0x02012884        0x4
 .text.udelay   0xffffffffffffffff        0x4 ../../output/obj/PRELOADER_OBJ/obj/mtk_timer.o
                0x02012885                udelay

.text.mtk_timer_init
                0x02012888       0x44
 .text.mtk_timer_init
                0xffffffffffffffff       0x44 ../../output/obj/PRELOADER_OBJ/obj/mtk_timer.o
                0x02012889                mtk_timer_init

.text.mtk_wdt_check_status
                0x020128cc       0x24
 .text.mtk_wdt_check_status
                0xffffffffffffffff       0x24 ../../output/obj/PRELOADER_OBJ/obj/mtk_wdt.o

.text.mtk_wdt_reset
                0x020128f0       0x3c
 .text.mtk_wdt_reset
                0xffffffffffffffff       0x3c ../../output/obj/PRELOADER_OBJ/obj/mtk_wdt.o

.text.mtk_wdt_restart
                0x0201292c       0x10
 .text.mtk_wdt_restart
                0xffffffffffffffff       0x10 ../../output/obj/PRELOADER_OBJ/obj/mtk_wdt.o
                0x0201292d                mtk_wdt_restart

.text.mtk_wdt_boot_check
                0x0201293c       0x44
 .text.mtk_wdt_boot_check
                0xffffffffffffffff       0x44 ../../output/obj/PRELOADER_OBJ/obj/mtk_wdt.o
                0x0201293d                mtk_wdt_boot_check

.text.mtk_wdt_init
                0x02012980      0x22c
 .text.mtk_wdt_init
                0xffffffffffffffff      0x22c ../../output/obj/PRELOADER_OBJ/obj/mtk_wdt.o
                0x02012981                mtk_wdt_init

.text.mtk_arch_reset
                0x02012bac       0x18
 .text.mtk_arch_reset
                0xffffffffffffffff       0x18 ../../output/obj/PRELOADER_OBJ/obj/mtk_wdt.o
                0x02012bad                mtk_arch_reset

.text.part_init
                0x02012bc4       0x5a
 .text.part_init
                0xffffffffffffffff       0x5a ../../output/obj/PRELOADER_OBJ/obj/part.o
                0x02012bc5                part_init

.text.part_get  0x02012c1e       0x32
 .text.part_get
                0xffffffffffffffff       0x32 ../../output/obj/PRELOADER_OBJ/obj/part.o
                0x02012c1f                part_get

.text.part_load
                0x02012c50      0x18c
 .text.part_load
                0xffffffffffffffff      0x18c ../../output/obj/PRELOADER_OBJ/obj/part.o
                0x02012c51                part_load

.text.part_dump
                0x02012ddc       0x80
 .text.part_dump
                0xffffffffffffffff       0x80 ../../output/obj/PRELOADER_OBJ/obj/part.o
                0x02012ddd                part_dump

.text.get_part_tab_from_complier
                0x02012e5c       0x90
 .text.get_part_tab_from_complier
                0xffffffffffffffff       0x90 ../../output/obj/PRELOADER_OBJ/obj/partition_mt.o
                0x02012e5d                get_part_tab_from_complier

.text.pmt_get_part
                0x02012eec       0x70
 .text.pmt_get_part
                0xffffffffffffffff       0x70 ../../output/obj/PRELOADER_OBJ/obj/partition_mt.o
                0x02012eed                pmt_get_part

.text.find_mirror_pt_from_bottom
                0x02012f5c       0xf4
 .text.find_mirror_pt_from_bottom
                0xffffffffffffffff       0xf4 ../../output/obj/PRELOADER_OBJ/obj/partition_mt.o
                0x02012f5d                find_mirror_pt_from_bottom

.text.load_exist_part_tab
                0x02013050      0x16c
 .text.load_exist_part_tab
                0xffffffffffffffff      0x16c ../../output/obj/PRELOADER_OBJ/obj/partition_mt.o
                0x02013051                load_exist_part_tab

.text.pmt_init  0x020131bc       0x74
 .text.pmt_init
                0xffffffffffffffff       0x74 ../../output/obj/PRELOADER_OBJ/obj/partition_mt.o
                0x020131bd                pmt_init

.text.platform_vusb_on
                0x02013230       0x38
 .text.platform_vusb_on
                0xffffffffffffffff       0x38 ../../output/obj/PRELOADER_OBJ/obj/platform.o
                0x02013231                platform_vusb_on

.text.platform_wdt_all_kick
                0x02013268        0xe
 .text.platform_wdt_all_kick
                0xffffffffffffffff        0xe ../../output/obj/PRELOADER_OBJ/obj/platform.o
                0x02013269                platform_wdt_all_kick

.text.platform_wdt_kick
                0x02013276        0x4
 .text.platform_wdt_kick
                0xffffffffffffffff        0x4 ../../output/obj/PRELOADER_OBJ/obj/platform.o
                0x02013277                platform_wdt_kick

.text.platform_safe_mode
                0x0201327c       0x40
 .text.platform_safe_mode
                0xffffffffffffffff       0x40 ../../output/obj/PRELOADER_OBJ/obj/platform.o
                0x0201327d                platform_safe_mode

.text.platform_emergency_download
                0x020132bc       0x34
 .text.platform_emergency_download
                0xffffffffffffffff       0x34 ../../output/obj/PRELOADER_OBJ/obj/platform.o
                0x020132bd                platform_emergency_download

.text.platform_get_mcp_id
                0x020132f0       0x1a
 .text.platform_get_mcp_id
                0xffffffffffffffff       0x1a ../../output/obj/PRELOADER_OBJ/obj/platform.o
                0x020132f1                platform_get_mcp_id

.text.platform_set_chrg_cur
                0x0201330a        0x4
 .text.platform_set_chrg_cur
                0xffffffffffffffff        0x4 ../../output/obj/PRELOADER_OBJ/obj/platform.o
                0x0201330b                platform_set_chrg_cur

.text.usb_accessory_in
                0x0201330e       0x1e
 .text.usb_accessory_in
                0xffffffffffffffff       0x1e ../../output/obj/PRELOADER_OBJ/obj/platform.o
                0x0201330f                usb_accessory_in

.text.usb_cable_in
                0x0201332c       0x5c
 .text.usb_cable_in
                0xffffffffffffffff       0x5c ../../output/obj/PRELOADER_OBJ/obj/platform.o
                0x0201332d                usb_cable_in

.text.platform_chip_ver
                0x02013388        0x8
 .text.platform_chip_ver
                0xffffffffffffffff        0x8 ../../output/obj/PRELOADER_OBJ/obj/platform.o
                0x02013389                platform_chip_ver

.text.platform_com_wait_forever_check
                0x02013390        0x4
 .text.platform_com_wait_forever_check
                0xffffffffffffffff        0x4 ../../output/obj/PRELOADER_OBJ/obj/platform.o
                0x02013391                platform_com_wait_forever_check

.text.platform_sram_repair_enable_check
                0x02013394       0x10
 .text.platform_sram_repair_enable_check
                0xffffffffffffffff       0x10 ../../output/obj/PRELOADER_OBJ/obj/platform.o
                0x02013395                platform_sram_repair_enable_check

.text.platform_pre_init
                0x020133a4      0x13c
 .text.platform_pre_init
                0xffffffffffffffff      0x134 ../../output/obj/PRELOADER_OBJ/obj/platform.o
                0x020133a5                platform_pre_init

.text.platform_post_init
                0x020134e0      0x198
 .text.platform_post_init
                0xffffffffffffffff      0x198 ../../output/obj/PRELOADER_OBJ/obj/platform.o
                0x020134e1                platform_post_init

.text.platform_error_handler
                0x02013678       0x5c
 .text.platform_error_handler
                0xffffffffffffffff       0x5c ../../output/obj/PRELOADER_OBJ/obj/platform.o
                0x02013679                platform_error_handler

.text.platform_assert
                0x020136d4       0x20
 .text.platform_assert
                0xffffffffffffffff       0x20 ../../output/obj/PRELOADER_OBJ/obj/platform.o
                0x020136d5                platform_assert

.text.mtk_wdt_is_mem_preserved
                0x020136f4       0x18
 .text.mtk_wdt_is_mem_preserved
                0xffffffffffffffff       0x18 ../../output/obj/PRELOADER_OBJ/obj/platform.o
                0x020136f5                mtk_wdt_is_mem_preserved

.text.platform_init
                0x0201370c      0x1a4
 .text.platform_init
                0xffffffffffffffff      0x1a4 ../../output/obj/PRELOADER_OBJ/obj/platform.o
                0x0201370d                platform_init

.text.outchar   0x020138b0       0x24
 .text.outchar  0xffffffffffffffff       0x24 ../../output/obj/PRELOADER_OBJ/obj/print.o

.text.outhex    0x020138d4       0x30
 .text.outhex   0xffffffffffffffff       0x30 ../../output/obj/PRELOADER_OBJ/obj/print.o

.text.outdec    0x02013904       0x2a
 .text.outdec   0xffffffffffffffff       0x2a ../../output/obj/PRELOADER_OBJ/obj/print.o

.text.log_ctrl  0x02013930       0x44
 .text.log_ctrl
                0xffffffffffffffff       0x44 ../../output/obj/PRELOADER_OBJ/obj/print.o
                0x02013931                log_ctrl

.text.log_status
                0x02013974       0x14
 .text.log_status
                0xffffffffffffffff       0x14 ../../output/obj/PRELOADER_OBJ/obj/print.o
                0x02013975                log_status

.text.vprint    0x02013988      0x122
 .text.vprint   0xffffffffffffffff      0x122 ../../output/obj/PRELOADER_OBJ/obj/print.o
                0x02013989                vprint

.text.print     0x02013aaa       0x18
 .text.print    0xffffffffffffffff       0x18 ../../output/obj/PRELOADER_OBJ/obj/print.o
                0x02013aab                print

.text.dbg_print
                0x02013ac2       0x12
 .text.dbg_print
                0xffffffffffffffff       0x12 ../../output/obj/PRELOADER_OBJ/obj/print.o
                0x02013ac3                dbg_print

.text.sec_cfg_load
                0x02013ad4       0xb0
 .text.sec_cfg_load
                0xffffffffffffffff       0xb0 ../../output/obj/PRELOADER_OBJ/obj/sec.o
                0x02013ad5                sec_cfg_load

.text.sec_cfg_save
                0x02013b84       0xbc
 .text.sec_cfg_save
                0xffffffffffffffff       0xbc ../../output/obj/PRELOADER_OBJ/obj/sec.o
                0x02013b85                sec_cfg_save

.text.sec_lib_init
                0x02013c40      0x120
 .text.sec_lib_init
                0xffffffffffffffff      0x120 ../../output/obj/PRELOADER_OBJ/obj/sec.o
                0x02013c41                sec_lib_init

.text.is_BR_cmd_disabled
                0x02013d60       0x5c
 .text.is_BR_cmd_disabled
                0xffffffffffffffff       0x5c ../../output/obj/PRELOADER_OBJ/obj/sec.o
                0x02013d61                is_BR_cmd_disabled

.text.sec_auth  0x02013dbc       0x4c
 .text.sec_auth
                0xffffffffffffffff       0x44 ../../output/obj/PRELOADER_OBJ/obj/sec_auth.o
                0x02013dbd                sec_auth

.text.sec_hash  0x02013e08        0xc
 .text.sec_hash
                0xffffffffffffffff        0x4 ../../output/obj/PRELOADER_OBJ/obj/sec_auth.o
                0x02013e09                sec_hash

.text.da_auth_init
                0x02013e14       0x30
 .text.da_auth_init
                0xffffffffffffffff       0x28 ../../output/obj/PRELOADER_OBJ/obj/sec_auth.o
                0x02013e15                da_auth_init

.text.img_auth_init
                0x02013e44       0x30
 .text.img_auth_init
                0xffffffffffffffff       0x28 ../../output/obj/PRELOADER_OBJ/obj/sec_auth.o
                0x02013e45                img_auth_init

.text.sec_boot_img_check
                0x02013e74       0x3c
 .text.sec_boot_img_check
                0xffffffffffffffff       0x34 ../../output/obj/PRELOADER_OBJ/obj/sec_boot.o
                0x02013e75                sec_boot_img_check

.text.sec_boot_check
                0x02013eb0       0xf8
 .text.sec_boot_check
                0xffffffffffffffff       0xf8 ../../output/obj/PRELOADER_OBJ/obj/sec_boot.o
                0x02013eb1                sec_boot_check

.text.sec_ctrl_init
                0x02013fa8        0x2
 .text.sec_ctrl_init
                0xffffffffffffffff        0x2 ../../output/obj/PRELOADER_OBJ/obj/sec_ctrl.o
                0x02013fa9                sec_ctrl_init

.text.sec_flashtool_cfg_init
                0x02013faa        0x2
 .text.sec_flashtool_cfg_init
                0xffffffffffffffff        0x2 ../../output/obj/PRELOADER_OBJ/obj/sec_flashtool_cfg.o
                0x02013fab                sec_flashtool_cfg_init

.text.sec_key_init
                0x02013fac       0x80
 .text.sec_key_init
                0xffffffffffffffff       0x80 ../../output/obj/PRELOADER_OBJ/obj/sec_key.o
                0x02013fad                sec_key_init

.text.sec_region_check
                0x0201402c       0xbc
 .text.sec_region_check
                0xffffffffffffffff       0xbc ../../output/obj/PRELOADER_OBJ/obj/sec_region.o
                0x0201402d                sec_region_check

.text.sec_rom_info_init
                0x020140e8       0x3c
 .text.sec_rom_info_init
                0xffffffffffffffff       0x3c ../../output/obj/PRELOADER_OBJ/obj/sec_rom_info.o
                0x020140e9                sec_rom_info_init

.text.factory_mode_valid
                0x02014124       0x4c
 .text.factory_mode_valid
                0xffffffffffffffff       0x4c ../../output/obj/PRELOADER_OBJ/obj/sec_secroimg.o
                0x02014125                factory_mode_valid

.text.sec_lib_read_secro
                0x02014170       0xe0
 .text.sec_lib_read_secro
                0xffffffffffffffff       0xe0 ../../output/obj/PRELOADER_OBJ/obj/sec_secroimg.o
                0x02014171                sec_lib_read_secro

.text.sec2plname
                0x02014250      0x184
 .text.sec2plname
                0xffffffffffffffff      0x184 ../../output/obj/PRELOADER_OBJ/obj/sec_util.o
                0x02014251                sec2plname

.text.sec_util_get_secro_buf
                0x020143d4        0x8
 .text.sec_util_get_secro_buf
                0xffffffffffffffff        0x8 ../../output/obj/PRELOADER_OBJ/obj/sec_util.o
                0x020143d5                sec_util_get_secro_buf

.text.sec_util_get_img_buf
                0x020143dc        0x8
 .text.sec_util_get_img_buf
                0xffffffffffffffff        0x8 ../../output/obj/PRELOADER_OBJ/obj/sec_util.o
                0x020143dd                sec_util_get_img_buf

.text.sec_util_get_chunk_buf
                0x020143e4        0x8
 .text.sec_util_get_chunk_buf
                0xffffffffffffffff        0x8 ../../output/obj/PRELOADER_OBJ/obj/sec_util.o
                0x020143e5                sec_util_get_chunk_buf

.text.sec_util_get_working_buf
                0x020143ec        0x8
 .text.sec_util_get_working_buf
                0xffffffffffffffff        0x8 ../../output/obj/PRELOADER_OBJ/obj/sec_util.o
                0x020143ed                sec_util_get_working_buf

.text.sec_util_read_image
                0x020143f4       0xf8
 .text.sec_util_read_image
                0xffffffffffffffff       0xf8 ../../output/obj/PRELOADER_OBJ/obj/sec_util.o
                0x020143f5                sec_util_read_image

.text.sec_util_brom_download_recovery_check
                0x020144ec        0x4
 .text.sec_util_brom_download_recovery_check
                0xffffffffffffffff        0x4 ../../output/obj/PRELOADER_OBJ/obj/sec_util.o
                0x020144ed                sec_util_brom_download_recovery_check

.text.strlen    0x020144f0       0x10
 .text.strlen   0xffffffffffffffff       0x10 ../../output/obj/PRELOADER_OBJ/obj/string.o
                0x020144f1                strlen

.text.strcmp    0x02014500       0x1a
 .text.strcmp   0xffffffffffffffff       0x1a ../../output/obj/PRELOADER_OBJ/obj/string.o
                0x02014501                strcmp

.text.strncmp   0x0201451a       0x20
 .text.strncmp  0xffffffffffffffff       0x20 ../../output/obj/PRELOADER_OBJ/obj/string.o
                0x0201451b                strncmp

.text.memset    0x0201453a       0x10
 .text.memset   0xffffffffffffffff       0x10 ../../output/obj/PRELOADER_OBJ/obj/string.o
                0x0201453b                memset

.text.memcpy    0x0201454a       0x12
 .text.memcpy   0xffffffffffffffff       0x12 ../../output/obj/PRELOADER_OBJ/obj/string.o
                0x0201454b                memcpy

.text.memcmp    0x0201455c       0x1c
 .text.memcmp   0xffffffffffffffff       0x1c ../../output/obj/PRELOADER_OBJ/obj/string.o
                0x0201455d                memcmp

.text.mtk_uart_power_on
                0x02014578       0x30
 .text.mtk_uart_power_on
                0xffffffffffffffff       0x30 ../../output/obj/PRELOADER_OBJ/obj/uart.o
                0x02014579                mtk_uart_power_on

.text.serial_setbrg
                0x020145a8       0x78
 .text.serial_setbrg
                0xffffffffffffffff       0x78 ../../output/obj/PRELOADER_OBJ/obj/uart.o
                0x020145a9                serial_setbrg

.text.mtk_serial_set_current_uart
                0x02014620       0x3c
 .text.mtk_serial_set_current_uart
                0xffffffffffffffff       0x3c ../../output/obj/PRELOADER_OBJ/obj/uart.o
                0x02014621                mtk_serial_set_current_uart

.text.mtk_uart_init
                0x0201465c       0x74
 .text.mtk_uart_init
                0xffffffffffffffff       0x74 ../../output/obj/PRELOADER_OBJ/obj/uart.o
                0x0201465d                mtk_uart_init

.text.PutUARTByte
                0x020146d0       0x30
 .text.PutUARTByte
                0xffffffffffffffff       0x30 ../../output/obj/PRELOADER_OBJ/obj/uart.o
                0x020146d1                PutUARTByte

.text.GetUARTBytes
                0x02014700       0x5c
 .text.GetUARTBytes
                0xffffffffffffffff       0x5c ../../output/obj/PRELOADER_OBJ/obj/uart.o
                0x02014701                GetUARTBytes

.text.seclib_sec_boot_enabled
                0x0201475c       0xf8
 .text.seclib_sec_boot_enabled
                0xffffffffffffffff       0xe8 /xspace/OrangePi/MTK/SourceCode/OrangePi_3G-IOT/external/mediatek/platform/mt6572/preloader/src/SecLib.a(seclib_boot.o)
                0x0201475c                seclib_sec_boot_enabled

.text.seclib_image_check
                0x02014854      0x314
 .text.seclib_image_check
                0xffffffffffffffff      0x2e4 /xspace/OrangePi/MTK/SourceCode/OrangePi_3G-IOT/external/mediatek/platform/mt6572/preloader/src/SecLib.a(seclib_boot.o)
                0x02014854                seclib_image_check

.text.seclib_sec_usbdl_enabled
                0x02014b68       0x9c
 .text.seclib_sec_usbdl_enabled
                0xffffffffffffffff       0x8c /xspace/OrangePi/MTK/SourceCode/OrangePi_3G-IOT/external/mediatek/platform/mt6572/preloader/src/SecLib.a(seclib_dl.o)
                0x02014b68                seclib_sec_usbdl_enabled

.text.seclib_image_hash_compute
                0x02014c04       0x74
 .text.seclib_image_hash_compute
                0xffffffffffffffff       0x64 /xspace/OrangePi/MTK/SourceCode/OrangePi_3G-IOT/external/mediatek/platform/mt6572/preloader/src/SecLib.a(seclib_img_hash.o)
                0x02014c04                seclib_image_hash_compute

.text.seclib_image_allocate_mem
                0x02014c78       0xb4
 .text.seclib_image_allocate_mem
                0xffffffffffffffff       0x9c /xspace/OrangePi/MTK/SourceCode/OrangePi_3G-IOT/external/mediatek/platform/mt6572/preloader/src/SecLib.a(seclib_img_verify.o)

.text.seclib_image_fread
                0x02014d2c       0xf0
 .text.seclib_image_fread
                0xffffffffffffffff       0xc0 /xspace/OrangePi/MTK/SourceCode/OrangePi_3G-IOT/external/mediatek/platform/mt6572/preloader/src/SecLib.a(seclib_img_verify.o)

.text.seclib_image_hash_only
                0x02014e1c      0x140
 .text.seclib_image_hash_only
                0xffffffffffffffff      0x130 /xspace/OrangePi/MTK/SourceCode/OrangePi_3G-IOT/external/mediatek/platform/mt6572/preloader/src/SecLib.a(seclib_img_verify.o)
                0x02014e1c                seclib_image_hash_only

.text.seclib_image_search_extension
                0x02014f5c      0x178
 .text.seclib_image_search_extension
                0xffffffffffffffff      0x170 /xspace/OrangePi/MTK/SourceCode/OrangePi_3G-IOT/external/mediatek/platform/mt6572/preloader/src/SecLib.a(seclib_img_verify.o)
                0x02014f5c                seclib_image_search_extension

.text.seclib_image_verify
                0x020150d4      0x6e0
 .text.seclib_image_verify
                0xffffffffffffffff      0x698 /xspace/OrangePi/MTK/SourceCode/OrangePi_3G-IOT/external/mediatek/platform/mt6572/preloader/src/SecLib.a(seclib_img_verify.o)
                0x020150d4                seclib_image_verify

.text.seclib_read_sbc_key
                0x020157b4       0x74
 .text.seclib_read_sbc_key
                0xffffffffffffffff       0x6c /xspace/OrangePi/MTK/SourceCode/OrangePi_3G-IOT/external/mediatek/platform/mt6572/preloader/src/SecLib.a(seclib_key.o)
                0x020157b4                seclib_read_sbc_key

.text.seclib_read_sec_cmd_cfg
                0x02015828       0x74
 .text.seclib_read_sec_cmd_cfg
                0xffffffffffffffff       0x74 /xspace/OrangePi/MTK/SourceCode/OrangePi_3G-IOT/external/mediatek/platform/mt6572/preloader/src/SecLib.a(seclib_key.o)
                0x02015828                seclib_read_sec_cmd_cfg

.text.seclib_sej_init
                0x0201589c       0x20
 .text.seclib_sej_init
                0xffffffffffffffff       0x20 /xspace/OrangePi/MTK/SourceCode/OrangePi_3G-IOT/external/mediatek/platform/mt6572/preloader/src/SecLib.a(seclib.o)
                0x0201589c                seclib_sej_init

.text.seclib_cust_init
                0x020158bc       0x94
 .text.seclib_cust_init
                0xffffffffffffffff       0x84 /xspace/OrangePi/MTK/SourceCode/OrangePi_3G-IOT/external/mediatek/platform/mt6572/preloader/src/SecLib.a(seclib.o)
                0x020158bc                seclib_cust_init

.text.seclib_check
                0x02015950        0x4
 .text.seclib_check
                0xffffffffffffffff        0x4 /xspace/OrangePi/MTK/SourceCode/OrangePi_3G-IOT/external/mediatek/platform/mt6572/preloader/src/SecLib.a(seclib.o)
                0x02015950                seclib_check

.text.seclib_init
                0x02015954      0x2f0
 .text.seclib_init
                0xffffffffffffffff      0x2d0 /xspace/OrangePi/MTK/SourceCode/OrangePi_3G-IOT/external/mediatek/platform/mt6572/preloader/src/SecLib.a(seclib.o)
                0x02015954                seclib_init

.text.seclib_secroimg_read
                0x02015c44      0x130
 .text.seclib_secroimg_read
                0xffffffffffffffff      0x108 /xspace/OrangePi/MTK/SourceCode/OrangePi_3G-IOT/external/mediatek/platform/mt6572/preloader/src/SecLib.a(seclib_secroimg.o)
                0x02015c44                seclib_secroimg_read

.text.sp_read_swotp
                0x02015d74       0x84
 .text.sp_read_swotp
                0xffffffffffffffff       0x74 /xspace/OrangePi/MTK/SourceCode/OrangePi_3G-IOT/external/mediatek/platform/mt6572/preloader/src/SecLib.a(seclib_sej_export.o)
                0x02015d74                sp_read_swotp

.text.sp_sej_enc
                0x02015df8       0xb0
 .text.sp_sej_enc
                0xffffffffffffffff       0xa8 /xspace/OrangePi/MTK/SourceCode/OrangePi_3G-IOT/external/mediatek/platform/mt6572/preloader/src/SecLib.a(seclib_sej_export.o)
                0x02015df8                sp_sej_enc

.text.sp_sej_dec
                0x02015ea8       0xd4
 .text.sp_sej_dec
                0xffffffffffffffff       0xc4 /xspace/OrangePi/MTK/SourceCode/OrangePi_3G-IOT/external/mediatek/platform/mt6572/preloader/src/SecLib.a(seclib_sej_export.o)
                0x02015ea8                sp_sej_dec

.text.sp_sej_init
                0x02015f7c       0x84
 .text.sp_sej_init
                0xffffffffffffffff       0x7c /xspace/OrangePi/MTK/SourceCode/OrangePi_3G-IOT/external/mediatek/platform/mt6572/preloader/src/SecLib.a(seclib_sej_export.o)
                0x02015f7c                sp_sej_init

.text.seclib_image_hash_dump
                0x02016000       0x70
 .text.seclib_image_hash_dump
                0xffffffffffffffff       0x68 /xspace/OrangePi/MTK/SourceCode/OrangePi_3G-IOT/external/mediatek/platform/mt6572/preloader/src/SecLib.a(seclib_util.o)
                0x02016000                seclib_image_hash_dump

.text.get_sec_cfg_cnt_size
                0x02016070        0x8
 .text.get_sec_cfg_cnt_size
                0xffffffffffffffff        0x8 /xspace/OrangePi/MTK/SourceCode/OrangePi_3G-IOT/external/mediatek/platform/mt6572/preloader/src/SecLib.a(seclib_util.o)
                0x02016070                get_sec_cfg_cnt_size

.text.get_seccfg_cipher_len
                0x02016078        0x8
 .text.get_seccfg_cipher_len
                0xffffffffffffffff        0x8 /xspace/OrangePi/MTK/SourceCode/OrangePi_3G-IOT/external/mediatek/platform/mt6572/preloader/src/SecLib.a(seccfg_crypto.o)
                0x02016078                get_seccfg_cipher_len

.text.seclib_mtk_rsa_n_key_len
                0x02016080        0x8
 .text.seclib_mtk_rsa_n_key_len
                0xffffffffffffffff        0x8 /xspace/OrangePi/MTK/SourceCode/OrangePi_3G-IOT/external/mediatek/platform/mt6572/preloader/src/security/auth/DaVerifyLib.a(auth.o)
                0x02016080                seclib_mtk_rsa_n_key_len

.text.seclib_mtk_rsa_e_key_len
                0x02016088        0x8
 .text.seclib_mtk_rsa_e_key_len
                0xffffffffffffffff        0x8 /xspace/OrangePi/MTK/SourceCode/OrangePi_3G-IOT/external/mediatek/platform/mt6572/preloader/src/security/auth/DaVerifyLib.a(auth.o)
                0x02016088                seclib_mtk_rsa_e_key_len

.text.seclib_rsa_init
                0x02016090      0x100
 .text.seclib_rsa_init
                0xffffffffffffffff       0xf0 /xspace/OrangePi/MTK/SourceCode/OrangePi_3G-IOT/external/mediatek/platform/mt6572/preloader/src/security/auth/DaVerifyLib.a(auth.o)
                0x02016090                seclib_rsa_init

.text.seclib_rsa_verify
                0x02016190       0xf0
 .text.seclib_rsa_verify
                0xffffffffffffffff       0xe8 /xspace/OrangePi/MTK/SourceCode/OrangePi_3G-IOT/external/mediatek/platform/mt6572/preloader/src/security/auth/DaVerifyLib.a(auth.o)
                0x02016190                seclib_rsa_verify

.text.bgn_read_str
                0x02016280      0x1f4
 .text.bgn_read_str
                0xffffffffffffffff      0x1f4 /xspace/OrangePi/MTK/SourceCode/OrangePi_3G-IOT/external/mediatek/platform/mt6572/preloader/src/security/auth/DaVerifyLib.a(bgn_io.o)
                0x02016280                bgn_read_str

.text.bgn_read_bin
                0x02016474       0xa0
 .text.bgn_read_bin
                0xffffffffffffffff       0xa0 /xspace/OrangePi/MTK/SourceCode/OrangePi_3G-IOT/external/mediatek/platform/mt6572/preloader/src/security/auth/DaVerifyLib.a(bgn_io.o)
                0x02016474                bgn_read_bin

.text.bgn_write_bin
                0x02016514       0x80
 .text.bgn_write_bin
                0xffffffffffffffff       0x78 /xspace/OrangePi/MTK/SourceCode/OrangePi_3G-IOT/external/mediatek/platform/mt6572/preloader/src/security/auth/DaVerifyLib.a(bgn_io.o)
                0x02016514                bgn_write_bin

.text.bgn_grow  0x02016594       0x98
 .text.bgn_grow
                0xffffffffffffffff       0x88 /xspace/OrangePi/MTK/SourceCode/OrangePi_3G-IOT/external/mediatek/platform/mt6572/preloader/src/security/auth/DaVerifyLib.a(bgn_util.o)
                0x02016594                bgn_grow

.text.bgn_copy  0x0201662c       0xa4
 .text.bgn_copy
                0xffffffffffffffff       0x94 /xspace/OrangePi/MTK/SourceCode/OrangePi_3G-IOT/external/mediatek/platform/mt6572/preloader/src/security/auth/DaVerifyLib.a(bgn_util.o)
                0x0201662c                bgn_copy

.text.bgn_lset  0x020166d0       0x60
 .text.bgn_lset
                0xffffffffffffffff       0x58 /xspace/OrangePi/MTK/SourceCode/OrangePi_3G-IOT/external/mediatek/platform/mt6572/preloader/src/security/auth/DaVerifyLib.a(bgn_util.o)
                0x020166d0                bgn_lset

.text.bgn_msb   0x02016730       0x64
 .text.bgn_msb  0xffffffffffffffff       0x64 /xspace/OrangePi/MTK/SourceCode/OrangePi_3G-IOT/external/mediatek/platform/mt6572/preloader/src/security/auth/DaVerifyLib.a(bgn_util.o)
                0x02016730                bgn_msb

.text.bgn_size  0x02016794       0x14
 .text.bgn_size
                0xffffffffffffffff       0x14 /xspace/OrangePi/MTK/SourceCode/OrangePi_3G-IOT/external/mediatek/platform/mt6572/preloader/src/security/auth/DaVerifyLib.a(bgn_util.o)
                0x02016794                bgn_size

.text.bgn_shift_l
                0x020167a8      0x108
 .text.bgn_shift_l
                0xffffffffffffffff      0x108 /xspace/OrangePi/MTK/SourceCode/OrangePi_3G-IOT/external/mediatek/platform/mt6572/preloader/src/security/auth/DaVerifyLib.a(bgn_util.o)
                0x020167a8                bgn_shift_l

.text.bgn_shift_r
                0x020168b0       0xd4
 .text.bgn_shift_r
                0xffffffffffffffff       0xd4 /xspace/OrangePi/MTK/SourceCode/OrangePi_3G-IOT/external/mediatek/platform/mt6572/preloader/src/security/auth/DaVerifyLib.a(bgn_util.o)
                0x020168b0                bgn_shift_r

.text.bgn_cmp_abs
                0x02016984       0xd0
 .text.bgn_cmp_abs
                0xffffffffffffffff       0xd0 /xspace/OrangePi/MTK/SourceCode/OrangePi_3G-IOT/external/mediatek/platform/mt6572/preloader/src/security/auth/DaVerifyLib.a(bgn_util.o)
                0x02016984                bgn_cmp_abs

.text.bgn_cmp_num
                0x02016a54      0x100
 .text.bgn_cmp_num
                0xffffffffffffffff      0x100 /xspace/OrangePi/MTK/SourceCode/OrangePi_3G-IOT/external/mediatek/platform/mt6572/preloader/src/security/auth/DaVerifyLib.a(bgn_util.o)
                0x02016a54                bgn_cmp_num

.text.bgn_cmp_int
                0x02016b54       0x40
 .text.bgn_cmp_int
                0xffffffffffffffff       0x40 /xspace/OrangePi/MTK/SourceCode/OrangePi_3G-IOT/external/mediatek/platform/mt6572/preloader/src/security/auth/DaVerifyLib.a(bgn_util.o)
                0x02016b54                bgn_cmp_int

.text.bgn_add_abs
                0x02016b94      0x140
 .text.bgn_add_abs
                0xffffffffffffffff      0x140 /xspace/OrangePi/MTK/SourceCode/OrangePi_3G-IOT/external/mediatek/platform/mt6572/preloader/src/security/auth/DaVerifyLib.a(bgn_util.o)
                0x02016b94                bgn_add_abs

.text.bgn_sub_hlp
                0x02016cd4       0x80
 .text.bgn_sub_hlp
                0xffffffffffffffff       0x80 /xspace/OrangePi/MTK/SourceCode/OrangePi_3G-IOT/external/mediatek/platform/mt6572/preloader/src/security/auth/DaVerifyLib.a(bgn_util.o)
                0x02016cd4                bgn_sub_hlp

.text.bgn_sub_abs
                0x02016d54       0xd0
 .text.bgn_sub_abs
                0xffffffffffffffff       0xd0 /xspace/OrangePi/MTK/SourceCode/OrangePi_3G-IOT/external/mediatek/platform/mt6572/preloader/src/security/auth/DaVerifyLib.a(bgn_util.o)
                0x02016d54                bgn_sub_abs

.text.bgn_add_bgn
                0x02016e24       0x80
 .text.bgn_add_bgn
                0xffffffffffffffff       0x80 /xspace/OrangePi/MTK/SourceCode/OrangePi_3G-IOT/external/mediatek/platform/mt6572/preloader/src/security/auth/DaVerifyLib.a(bgn_util.o)
                0x02016e24                bgn_add_bgn

.text.bgn_sub_bgn
                0x02016ea4       0x84
 .text.bgn_sub_bgn
                0xffffffffffffffff       0x84 /xspace/OrangePi/MTK/SourceCode/OrangePi_3G-IOT/external/mediatek/platform/mt6572/preloader/src/security/auth/DaVerifyLib.a(bgn_util.o)
                0x02016ea4                bgn_sub_bgn

.text.bgn_add_int
                0x02016f28       0x40
 .text.bgn_add_int
                0xffffffffffffffff       0x40 /xspace/OrangePi/MTK/SourceCode/OrangePi_3G-IOT/external/mediatek/platform/mt6572/preloader/src/security/auth/DaVerifyLib.a(bgn_util.o)
                0x02016f28                bgn_add_int

.text.bgn_sub_int
                0x02016f68       0x40
 .text.bgn_sub_int
                0xffffffffffffffff       0x40 /xspace/OrangePi/MTK/SourceCode/OrangePi_3G-IOT/external/mediatek/platform/mt6572/preloader/src/security/auth/DaVerifyLib.a(bgn_util.o)
                0x02016f68                bgn_sub_int

.text.bgn_mul_hlp
                0x02016fa8      0xa04
 .text.bgn_mul_hlp
                0xffffffffffffffff      0xa04 /xspace/OrangePi/MTK/SourceCode/OrangePi_3G-IOT/external/mediatek/platform/mt6572/preloader/src/security/auth/DaVerifyLib.a(bgn_util.o)
                0x02016fa8                bgn_mul_hlp

.text.bgn_mul_bgn
                0x020179ac      0x154
 .text.bgn_mul_bgn
                0xffffffffffffffff      0x154 /xspace/OrangePi/MTK/SourceCode/OrangePi_3G-IOT/external/mediatek/platform/mt6572/preloader/src/security/auth/DaVerifyLib.a(bgn_util.o)
                0x020179ac                bgn_mul_bgn

.text.bgn_mul_int
                0x02017b00       0x2c
 .text.bgn_mul_int
                0xffffffffffffffff       0x2c /xspace/OrangePi/MTK/SourceCode/OrangePi_3G-IOT/external/mediatek/platform/mt6572/preloader/src/security/auth/DaVerifyLib.a(bgn_util.o)
                0x02017b00                bgn_mul_int

.text.bgn_div_bgn
                0x02017b2c      0x5d0
 .text.bgn_div_bgn
                0xffffffffffffffff      0x5d0 /xspace/OrangePi/MTK/SourceCode/OrangePi_3G-IOT/external/mediatek/platform/mt6572/preloader/src/security/auth/DaVerifyLib.a(bgn_util.o)
                0x02017b2c                bgn_div_bgn

.text.bgn_mod_bgn
                0x020180fc       0xb4
 .text.bgn_mod_bgn
                0xffffffffffffffff       0xb4 /xspace/OrangePi/MTK/SourceCode/OrangePi_3G-IOT/external/mediatek/platform/mt6572/preloader/src/security/auth/DaVerifyLib.a(bgn_util.o)
                0x020180fc                bgn_mod_bgn

.text.rsa_pub   0x020181b0       0xb0
 .text.rsa_pub  0xffffffffffffffff       0xb0 /xspace/OrangePi/MTK/SourceCode/OrangePi_3G-IOT/external/mediatek/platform/mt6572/preloader/src/security/auth/DaVerifyLib.a(rsa.o)
                0x020181b0                rsa_pub

.text.rsa_verify
                0x02018260       0xd4
 .text.rsa_verify
                0xffffffffffffffff       0xcc /xspace/OrangePi/MTK/SourceCode/OrangePi_3G-IOT/external/mediatek/platform/mt6572/preloader/src/security/auth/DaVerifyLib.a(rsa.o)
                0x02018260                rsa_verify

.text.get_ul    0x02018334       0x24
 .text.get_ul   0xffffffffffffffff       0x24 /xspace/OrangePi/MTK/SourceCode/OrangePi_3G-IOT/external/mediatek/platform/mt6572/preloader/src/security/auth/DaVerifyLib.a(sha1.o)
                0x02018334                get_ul

.text.set_ul    0x02018358       0x20
 .text.set_ul   0xffffffffffffffff       0x20 /xspace/OrangePi/MTK/SourceCode/OrangePi_3G-IOT/external/mediatek/platform/mt6572/preloader/src/security/auth/DaVerifyLib.a(sha1.o)
                0x02018358                set_ul

.text.cal_P     0x02018378       0xb0
 .text.cal_P    0xffffffffffffffff       0xb0 /xspace/OrangePi/MTK/SourceCode/OrangePi_3G-IOT/external/mediatek/platform/mt6572/preloader/src/security/auth/DaVerifyLib.a(sha1.o)
                0x02018378                cal_P

.text.hash_process
                0x02018428      0x440
 .text.hash_process
                0xffffffffffffffff      0x440 /xspace/OrangePi/MTK/SourceCode/OrangePi_3G-IOT/external/mediatek/platform/mt6572/preloader/src/security/auth/DaVerifyLib.a(sha1.o)

.text.hash_starts
                0x02018868       0x4c
 .text.hash_starts
                0xffffffffffffffff       0x4c /xspace/OrangePi/MTK/SourceCode/OrangePi_3G-IOT/external/mediatek/platform/mt6572/preloader/src/security/auth/DaVerifyLib.a(sha1.o)
                0x02018868                hash_starts

.text.hash_update
                0x020188b4       0xc4
 .text.hash_update
                0xffffffffffffffff       0xbc /xspace/OrangePi/MTK/SourceCode/OrangePi_3G-IOT/external/mediatek/platform/mt6572/preloader/src/security/auth/DaVerifyLib.a(sha1.o)
                0x020188b4                hash_update

.text.hash_finish
                0x02018978       0x98
 .text.hash_finish
                0xffffffffffffffff       0x98 /xspace/OrangePi/MTK/SourceCode/OrangePi_3G-IOT/external/mediatek/platform/mt6572/preloader/src/security/auth/DaVerifyLib.a(sha1.o)
                0x02018978                hash_finish

.text.sha1      0x02018a10       0x58
 .text.sha1     0xffffffffffffffff       0x50 /xspace/OrangePi/MTK/SourceCode/OrangePi_3G-IOT/external/mediatek/platform/mt6572/preloader/src/security/auth/DaVerifyLib.a(sha1.o)
                0x02018a10                sha1

.text.malloc    0x02018a68       0xc4
 .text.malloc   0xffffffffffffffff       0xbc /xspace/OrangePi/MTK/SourceCode/OrangePi_3G-IOT/external/mediatek/platform/mt6572/preloader/src/security/auth/DaVerifyLib.a(stdlib.o)
                0x02018a68                malloc

.text.free      0x02018b2c        0x4
 .text.free     0xffffffffffffffff        0x4 /xspace/OrangePi/MTK/SourceCode/OrangePi_3G-IOT/external/mediatek/platform/mt6572/preloader/src/security/auth/DaVerifyLib.a(stdlib.o)
                0x02018b2c                free

.text.bgn_init  0x02018b30       0x18
 .text.bgn_init
                0xffffffffffffffff       0x18 /xspace/OrangePi/MTK/SourceCode/OrangePi_3G-IOT/external/mediatek/platform/mt6572/preloader/src/security/auth/DaVerifyLib.a(bgn_core.o)
                0x02018b30                bgn_init

.text.bgn_free  0x02018b48       0x4c
 .text.bgn_free
                0xffffffffffffffff       0x44 /xspace/OrangePi/MTK/SourceCode/OrangePi_3G-IOT/external/mediatek/platform/mt6572/preloader/src/security/auth/DaVerifyLib.a(bgn_core.o)
                0x02018b48                bgn_free

.text.bgn_exp_mod
                0x02018b94      0x410
 .text.bgn_exp_mod
                0xffffffffffffffff      0x400 /xspace/OrangePi/MTK/SourceCode/OrangePi_3G-IOT/external/mediatek/platform/mt6572/preloader/src/security/auth/DaVerifyLib.a(bgn_core.o)
                0x02018b94                bgn_exp_mod

.text.montg_init
                0x02018fa4       0x40
 .text.montg_init
                0xffffffffffffffff       0x40 /xspace/OrangePi/MTK/SourceCode/OrangePi_3G-IOT/external/mediatek/platform/mt6572/preloader/src/security/auth/DaVerifyLib.a(montg.o)
                0x02018fa4                montg_init

.text.montg_mul
                0x02018fe4      0x150
 .text.montg_mul
                0xffffffffffffffff      0x140 /xspace/OrangePi/MTK/SourceCode/OrangePi_3G-IOT/external/mediatek/platform/mt6572/preloader/src/security/auth/DaVerifyLib.a(montg.o)
                0x02018fe4                montg_mul

.text.montg_red
                0x02019134       0x40
 .text.montg_red
                0xffffffffffffffff       0x40 /xspace/OrangePi/MTK/SourceCode/OrangePi_3G-IOT/external/mediatek/platform/mt6572/preloader/src/security/auth/DaVerifyLib.a(montg.o)
                0x02019134                montg_red

.text.seclib_sbc_enabled
                0x02019174       0x68
 .text.seclib_sbc_enabled
                0xffffffffffffffff       0x60 /xspace/OrangePi/MTK/SourceCode/OrangePi_3G-IOT/external/mediatek/platform/mt6572/preloader/src/SecPlat.a(efuse.o)
                0x02019174                seclib_sbc_enabled

.text.seclib_daa_enabled
                0x020191dc       0x68
 .text.seclib_daa_enabled
                0xffffffffffffffff       0x60 /xspace/OrangePi/MTK/SourceCode/OrangePi_3G-IOT/external/mediatek/platform/mt6572/preloader/src/SecPlat.a(efuse.o)
                0x020191dc                seclib_daa_enabled

.text.seclib_sla_enabled
                0x02019244       0x68
 .text.seclib_sla_enabled
                0xffffffffffffffff       0x60 /xspace/OrangePi/MTK/SourceCode/OrangePi_3G-IOT/external/mediatek/platform/mt6572/preloader/src/SecPlat.a(efuse.o)
                0x02019244                seclib_sla_enabled

.text.seclib_get_devinfo_with_index
                0x020192ac       0x5c
 .text.seclib_get_devinfo_with_index
                0xffffffffffffffff       0x54 /xspace/OrangePi/MTK/SourceCode/OrangePi_3G-IOT/external/mediatek/platform/mt6572/preloader/src/SecPlat.a(efuse.o)
                0x020192ac                seclib_get_devinfo_with_index

.text.seclib_brom_meta_mode
                0x02019308       0x10
 .text.seclib_brom_meta_mode
                0xffffffffffffffff       0x10 /xspace/OrangePi/MTK/SourceCode/OrangePi_3G-IOT/external/mediatek/platform/mt6572/preloader/src/SecPlat.a(meta.o)
                0x02019308                seclib_brom_meta_mode

.text.seclib_region_check
                0x02019318       0x58
 .text.seclib_region_check
                0xffffffffffffffff       0x58 /xspace/OrangePi/MTK/SourceCode/OrangePi_3G-IOT/external/mediatek/platform/mt6572/preloader/src/SecPlat.a(seclib_region.o)
                0x02019318                seclib_region_check

.text.SEJ_V3_Init
                0x02019370      0x10c
 .text.SEJ_V3_Init
                0xffffffffffffffff      0x10c /xspace/OrangePi/MTK/SourceCode/OrangePi_3G-IOT/external/mediatek/platform/mt6572/preloader/src/SecPlat.a(sej_hk.o)
                0x02019370                SEJ_V3_Init

.text.SEJ_V3_Run
                0x0201947c       0x84
 .text.SEJ_V3_Run
                0xffffffffffffffff       0x84 /xspace/OrangePi/MTK/SourceCode/OrangePi_3G-IOT/external/mediatek/platform/mt6572/preloader/src/SecPlat.a(sej_hk.o)
                0x0201947c                SEJ_V3_Run

.text.SEJ_V3_Terminate
                0x02019500       0x38
 .text.SEJ_V3_Terminate
                0xffffffffffffffff       0x38 /xspace/OrangePi/MTK/SourceCode/OrangePi_3G-IOT/external/mediatek/platform/mt6572/preloader/src/SecPlat.a(sej_hk.o)
                0x02019500                SEJ_V3_Terminate

.text.sej_set_clk
                0x02019538        0x8
 .text.sej_set_clk
                0xffffffffffffffff        0x8 /xspace/OrangePi/MTK/SourceCode/OrangePi_3G-IOT/external/mediatek/platform/mt6572/preloader/src/SecPlat.a(sej_sk.o)
                0x02019538                sej_set_clk

.text.sej_set_iv
                0x02019540       0x2c
 .text.sej_set_iv
                0xffffffffffffffff       0x24 /xspace/OrangePi/MTK/SourceCode/OrangePi_3G-IOT/external/mediatek/platform/mt6572/preloader/src/SecPlat.a(sej_sk.o)
                0x02019540                sej_set_iv

.text.sej_set_mode
                0x0201956c       0x74
 .text.sej_set_mode
                0xffffffffffffffff       0x6c /xspace/OrangePi/MTK/SourceCode/OrangePi_3G-IOT/external/mediatek/platform/mt6572/preloader/src/SecPlat.a(sej_sk.o)
                0x0201956c                sej_set_mode

.text.sej_set_key
                0x020195e0      0x10c
 .text.sej_set_key
                0xffffffffffffffff      0x10c /xspace/OrangePi/MTK/SourceCode/OrangePi_3G-IOT/external/mediatek/platform/mt6572/preloader/src/SecPlat.a(sej_sk.o)
                0x020195e0                sej_set_key

.text.sej_do_aes
                0x020196ec      0x114
 .text.sej_do_aes
                0xffffffffffffffff      0x10c /xspace/OrangePi/MTK/SourceCode/OrangePi_3G-IOT/external/mediatek/platform/mt6572/preloader/src/SecPlat.a(sej_sk.o)
                0x020196ec                sej_do_aes

.text.sej_deinit
                0x02019800       0x1c
 .text.sej_deinit
                0xffffffffffffffff       0x1c /xspace/OrangePi/MTK/SourceCode/OrangePi_3G-IOT/external/mediatek/platform/mt6572/preloader/src/SecPlat.a(sej_sk.o)
                0x02019800                sej_deinit

.text.sej_init  0x0201981c      0x128
 .text.sej_init
                0xffffffffffffffff      0x120 /xspace/OrangePi/MTK/SourceCode/OrangePi_3G-IOT/external/mediatek/platform/mt6572/preloader/src/SecPlat.a(sej_sk.o)
                0x0201981c                sej_init

.rodata         0x02019944        0x4
 .rodata        0x02019944        0x4 ../../output/obj/PRELOADER_OBJ/obj/download.o

.rodata.__FUNCTION__.4252
                0x02019948        0xe
 .rodata.__FUNCTION__.4252
                0x02019948        0xe ../../output/obj/PRELOADER_OBJ/obj/bmt.o

.rodata.str1.1  0x02019956     0x3e70
 ** merge strings
                0x02019956     0x3e70

.rodata.__FUNCTION__.4209
                0x0201d7c6       0x14
 .rodata.__FUNCTION__.4209
                0x0201d7c6       0x14 ../../output/obj/PRELOADER_OBJ/obj/bmt.o

.rodata.__FUNCTION__.4071
                0x0201d7da       0x14
 .rodata.__FUNCTION__.4071
                0x0201d7da       0x14 ../../output/obj/PRELOADER_OBJ/obj/mt_pmic_wrap_init.o

.rodata.__FUNCTION__.4039
                0x0201d7ee       0x13
 .rodata.__FUNCTION__.4039
                0x0201d7ee       0x13 ../../output/obj/PRELOADER_OBJ/obj/mt_pmic_wrap_init.o

.rodata.__FUNCTION__.4079
                0x0201d801       0x16
 .rodata.__FUNCTION__.4079
                0x0201d801       0x16 ../../output/obj/PRELOADER_OBJ/obj/mt_pmic_wrap_init.o

.rodata.__FUNCTION__.3912
                0x0201d817       0x1a
 .rodata.__FUNCTION__.3912
                0x0201d817       0x1a ../../output/obj/PRELOADER_OBJ/obj/mt_pmic_wrap_init.o

.rodata.__FUNCTION__.4023
                0x0201d831       0x10
 .rodata.__FUNCTION__.4023
                0x0201d831       0x10 ../../output/obj/PRELOADER_OBJ/obj/mt_pmic_wrap_init.o

.rodata.__FUNCTION__.4090
                0x0201d841        0xb
 .rodata.__FUNCTION__.4090
                0x0201d841        0xb ../../output/obj/PRELOADER_OBJ/obj/mt_pmic_wrap_init.o

.rodata.__FUNCTION__.3993
                0x0201d84c        0xc
 .rodata.__FUNCTION__.3993
                0x0201d84c        0xc ../../output/obj/PRELOADER_OBJ/obj/mt_pmic_wrap_init.o

.rodata.__FUNCTION__.4053
                0x0201d858       0x15
 .rodata.__FUNCTION__.4053
                0x0201d858       0x15 ../../output/obj/PRELOADER_OBJ/obj/mt_pmic_wrap_init.o

.rodata.__FUNCTION__.3953
                0x0201d86d       0x14
 .rodata.__FUNCTION__.3953
                0x0201d86d       0x14 ../../output/obj/PRELOADER_OBJ/obj/mt_pmic_wrap_init.o

.rodata.__FUNCTION__.3932
                0x0201d881       0x19
 .rodata.__FUNCTION__.3932
                0x0201d881       0x19 ../../output/obj/PRELOADER_OBJ/obj/mt_pmic_wrap_init.o

.rodata.__FUNCTION__.4117
                0x0201d89a       0x15
 .rodata.__FUNCTION__.4117
                0x0201d89a       0x15 ../../output/obj/PRELOADER_OBJ/obj/mt_pmic_wrap_init.o

.rodata.__func__.4276
                0x0201d8af       0x16
 .rodata.__func__.4276
                0x0201d8af       0x16 ../../output/obj/PRELOADER_OBJ/obj/mt_usbphy.o

.rodata.__func__.4263
                0x0201d8c5       0x12
 .rodata.__func__.4263
                0x0201d8c5       0x12 ../../output/obj/PRELOADER_OBJ/obj/mt_usbphy.o

.rodata.ana_io_ies_value
                0x0201d8d8       0x78
 .rodata.ana_io_ies_value
                0x0201d8d8       0x78 ../../output/obj/PRELOADER_OBJ/obj/mtk_key.o
                0x0201d8d8                ana_io_ies_value

.rodata.CSWTCH.61
                0x0201d950        0x5
 .rodata.CSWTCH.61
                0x0201d950        0x5 ../../output/obj/PRELOADER_OBJ/obj/mtk_nand.o

.rodata.gen_FlashTable
                0x0201d958      0x12c
 .rodata.gen_FlashTable
                0x0201d958      0x12c ../../output/obj/PRELOADER_OBJ/obj/mtk_nand.o

.rodata.sys_stack_sz
                0x0201da84        0x4
 .rodata.sys_stack_sz
                0x0201da84        0x4 ../../output/obj/PRELOADER_OBJ/obj/platform.o
                0x0201da84                sys_stack_sz

.rodata.padding
                0x0201da88       0x40
 .rodata.padding
                0x0201da88       0x40 /xspace/OrangePi/MTK/SourceCode/OrangePi_3G-IOT/external/mediatek/platform/mt6572/preloader/src/security/auth/DaVerifyLib.a(sha1.o)

.rodata.g_AC_FIXED_PATTERN
                0x0201dac8       0x30
 .rodata.g_AC_FIXED_PATTERN
                0x0201dac8       0x30 /xspace/OrangePi/MTK/SourceCode/OrangePi_3G-IOT/external/mediatek/platform/mt6572/preloader/src/SecPlat.a(sej_hk.o)

.data           0x0201daf8       0x10
 .data          0x0201daf8        0x8 ../../output/obj/PRELOADER_OBJ/obj/handshake_uart.o
 .data          0x0201db00        0x8 ../../output/obj/PRELOADER_OBJ/obj/handshake_usb.o

.data.MAIN_SIGNATURE
                0x0201db08        0x4
 .data.MAIN_SIGNATURE
                0x0201db08        0x4 ../../output/obj/PRELOADER_OBJ/obj/bmt.o

.data.OOB_SIGNATURE
                0x0201db0c        0x4
 .data.OOB_SIGNATURE
                0x0201db0c        0x4 ../../output/obj/PRELOADER_OBJ/obj/bmt.o

.data.rel.local.platform_parts
                0x0201db10      0x320
 .data.rel.local.platform_parts
                0x0201db10      0x320 ../../output/obj/PRELOADER_OBJ/obj/cust_part.o

.data.num_of_emi_records
                0x0201de30        0x4
 .data.num_of_emi_records
                0x0201de30        0x4 ../../output/obj/PRELOADER_OBJ/obj/custom_emi.o
                0x0201de30                num_of_emi_records

.data.emi_settings
                0x0201de34      0x3d8
 .data.emi_settings
                0x0201de34      0x3d8 ../../output/obj/PRELOADER_OBJ/obj/custom_emi.o
                0x0201de34                emi_settings

.data.PULL_offset
                0x0201e20c       0x9a
 .data.PULL_offset
                0x0201e20c       0x9a ../../output/obj/PRELOADER_OBJ/obj/gpio.o
                0x0201e20c                PULL_offset

.data.PULLEN_offset
                0x0201e2a6       0x9a
 .data.PULLEN_offset
                0x0201e2a6       0x9a ../../output/obj/PRELOADER_OBJ/obj/gpio.o
                0x0201e2a6                PULLEN_offset

.data.gpio_dat  0x0201e340        0x4
 .data.gpio_dat
                0x0201e340        0x4 ../../output/obj/PRELOADER_OBJ/obj/gpio.o

.data.PULL_addr
                0x0201e344      0x268
 .data.PULL_addr
                0x0201e344      0x268 ../../output/obj/PRELOADER_OBJ/obj/gpio.o
                0x0201e344                PULL_addr

.data.PULLEN_addr
                0x0201e5ac      0x268
 .data.PULLEN_addr
                0x0201e5ac      0x268 ../../output/obj/PRELOADER_OBJ/obj/gpio.o
                0x0201e5ac                PULLEN_addr

.data.mdl_number.4231
                0x0201e814        0x4
 .data.mdl_number.4231
                0x0201e814        0x4 ../../output/obj/PRELOADER_OBJ/obj/mt_emi.o

.data.g_line_coding
                0x0201e818        0x7
 .data.g_line_coding
                0x0201e818        0x7 ../../output/obj/PRELOADER_OBJ/obj/mt_usbd.o

.data.fifo_addr
                0x0201e820        0x4
 .data.fifo_addr
                0x0201e820        0x4 ../../output/obj/PRELOADER_OBJ/obj/mt_usbd.o
                0x0201e820                fifo_addr

.data.rel.local.fs_data_ep_descriptor_ptrs
                0x0201e824        0x8
 .data.rel.local.fs_data_ep_descriptor_ptrs
                0x0201e824        0x8 ../../output/obj/PRELOADER_OBJ/obj/mt_usbtty.o

.data.rel.local.usbtty_string_table
                0x0201e82c       0x18
 .data.rel.local.usbtty_string_table
                0x0201e82c       0x18 ../../output/obj/PRELOADER_OBJ/obj/mt_usbtty.o

.data.header_function_descriptor
                0x0201e844        0x5
 .data.header_function_descriptor
                0x0201e844        0x5 ../../output/obj/PRELOADER_OBJ/obj/mt_usbtty.o

.data.rel.local.fs_comm_ep_descriptor_ptrs
                0x0201e84c        0x4
 .data.rel.local.fs_comm_ep_descriptor_ptrs
                0x0201e84c        0x4 ../../output/obj/PRELOADER_OBJ/obj/mt_usbtty.o

.data.rel.local.hs_comm_ep_descriptor_ptrs
                0x0201e850        0x4
 .data.rel.local.hs_comm_ep_descriptor_ptrs
                0x0201e850        0x4 ../../output/obj/PRELOADER_OBJ/obj/mt_usbtty.o

.data.call_management_descriptor
                0x0201e854        0x5
 .data.call_management_descriptor
                0x0201e854        0x5 ../../output/obj/PRELOADER_OBJ/obj/mt_usbtty.o
                0x0201e854                call_management_descriptor

.data.device_qualifier_descriptor
                0x0201e859        0x9
 .data.device_qualifier_descriptor
                0x0201e859        0x9 ../../output/obj/PRELOADER_OBJ/obj/mt_usbtty.o

.data.rel.local.hs_data_ep_descriptor_ptrs
                0x0201e864        0x8
 .data.rel.local.hs_data_ep_descriptor_ptrs
                0x0201e864        0x8 ../../output/obj/PRELOADER_OBJ/obj/mt_usbtty.o

.data.language  0x0201e86c        0x4
 .data.language
                0x0201e86c        0x4 ../../output/obj/PRELOADER_OBJ/obj/mt_usbtty.o

.data.hs_ep_descriptors
                0x0201e870       0x15
 .data.hs_ep_descriptors
                0x0201e870       0x15 ../../output/obj/PRELOADER_OBJ/obj/mt_usbtty.o

.data.device_descriptor
                0x0201e885       0x12
 .data.device_descriptor
                0x0201e885       0x12 ../../output/obj/PRELOADER_OBJ/obj/mt_usbtty.o

.data.abstract_control_descriptor
                0x0201e897        0x4
 .data.abstract_control_descriptor
                0x0201e897        0x4 ../../output/obj/PRELOADER_OBJ/obj/mt_usbtty.o

.data.fs_ep_descriptors
                0x0201e89b       0x15
 .data.fs_ep_descriptors
                0x0201e89b       0x15 ../../output/obj/PRELOADER_OBJ/obj/mt_usbtty.o

.data.interface_descriptors
                0x0201e8b0       0x12
 .data.interface_descriptors
                0x0201e8b0       0x12 ../../output/obj/PRELOADER_OBJ/obj/mt_usbtty.o

.data.config_descriptors
                0x0201e8c2        0x9
 .data.config_descriptors
                0x0201e8c2        0x9 ../../output/obj/PRELOADER_OBJ/obj/mt_usbtty.o

.data.union_function_descriptor
                0x0201e8cb        0x5
 .data.union_function_descriptor
                0x0201e8cb        0x5 ../../output/obj/PRELOADER_OBJ/obj/mt_usbtty.o
                0x0201e8cb                union_function_descriptor

.data.g_bHwEcc  0x0201e8d0        0x1
 .data.g_bHwEcc
                0x0201e8d0        0x1 ../../output/obj/PRELOADER_OBJ/obj/mtk_nand.o
                0x0201e8d0                g_bHwEcc

.data.nand_oob_16
                0x0201e8d4      0x148
 .data.nand_oob_16
                0x0201e8d4      0x148 ../../output/obj/PRELOADER_OBJ/obj/mtk_nand.o

.data.nand_oob_128
                0x0201ea1c      0x148
 .data.nand_oob_128
                0x0201ea1c      0x148 ../../output/obj/PRELOADER_OBJ/obj/mtk_nand.o
                0x0201ea1c                nand_oob_128

.data.nand_oob_64
                0x0201eb64      0x148
 .data.nand_oob_64
                0x0201eb64      0x148 ../../output/obj/PRELOADER_OBJ/obj/mtk_nand.o
                0x0201eb64                nand_oob_64

.data.page_readbuf
                0x0201ecac        0x4
 .data.page_readbuf
                0x0201ecac        0x4 ../../output/obj/PRELOADER_OBJ/obj/partition_mt.o
                0x0201ecac                page_readbuf

.data.log_ptr   0x0201ecb0        0x4
 .data.log_ptr  0x0201ecb0        0x4 ../../output/obj/PRELOADER_OBJ/obj/print.o

.data.g_uart    0x0201ecb4        0x4
 .data.g_uart   0x0201ecb4        0x4 ../../output/obj/PRELOADER_OBJ/obj/uart.o
                0x0201ecb4                g_uart

.data.sec_crypto_sig_size
                0x0201ecb8       0x10
 .data.sec_crypto_sig_size
                0x0201ecb8       0x10 /xspace/OrangePi/MTK/SourceCode/OrangePi_3G-IOT/external/mediatek/platform/mt6572/preloader/src/SecLib.a(seclib_img_verify.o)
                0x0201ecb8                sec_crypto_sig_size

.data.sec_crypto_hash_size
                0x0201ecc8       0x14
 .data.sec_crypto_hash_size
                0x0201ecc8       0x14 /xspace/OrangePi/MTK/SourceCode/OrangePi_3G-IOT/external/mediatek/platform/mt6572/preloader/src/SecLib.a(seclib_img_verify.o)
                0x0201ecc8                sec_crypto_hash_size

.data.heap_max_size
                0x0201ecdc        0x4
 .data.heap_max_size
                0x0201ecdc        0x4 /xspace/OrangePi/MTK/SourceCode/OrangePi_3G-IOT/external/mediatek/platform/mt6572/preloader/src/security/auth/DaVerifyLib.a(stdlib.o)
                0x0201ecdc                heap_max_size

.data.g_devinfo_data_addr
                0x0201ece0       0x68
 .data.g_devinfo_data_addr
                0x0201ece0       0x68 /xspace/OrangePi/MTK/SourceCode/OrangePi_3G-IOT/external/mediatek/platform/mt6572/preloader/src/SecPlat.a(efuse.o)
                0x0201ece0                g_devinfo_data_addr

.got            0x0201ed48      0x110
 ** GOT         0x0201ed48      0x104
 ** GOT PLT     0x0201ee4c        0xc

.pll_text       0x11141940       0xb4 load address 0x201ee58 
 .text.mtk_pll_init
                0xffffffffffffffff       0xac ../../output/obj/PRELOADER_OBJ/obj/mtk_pll.o
                0x11141941                mtk_pll_init

.uninit         0x81d00000     0x2000
 .bss.uninit    0x81d00000     0x2000 ../../output/obj/PRELOADER_OBJ/obj/mtk_nand.o
                0x81d00000                Bad_Block_Table
